
optiskavst.elf:     file format elf32-avr

Sections:
Idx Name          Size      VMA       LMA       File off  Algn
  0 .data         00000016  00800100  0000032e  000003c2  2**0
                  CONTENTS, ALLOC, LOAD, DATA
  1 .text         0000032e  00000000  00000000  00000094  2**1
                  CONTENTS, ALLOC, LOAD, READONLY, CODE
  2 .bss          00000004  00800116  00800116  000003d8  2**0
                  ALLOC
  3 .comment      00000030  00000000  00000000  000003d8  2**0
                  CONTENTS, READONLY
  4 .debug_aranges 00000080  00000000  00000000  00000408  2**0
                  CONTENTS, READONLY, DEBUGGING
  5 .debug_info   0000094c  00000000  00000000  00000488  2**0
                  CONTENTS, READONLY, DEBUGGING
  6 .debug_abbrev 000003cb  00000000  00000000  00000dd4  2**0
                  CONTENTS, READONLY, DEBUGGING
  7 .debug_line   000004cd  00000000  00000000  0000119f  2**0
                  CONTENTS, READONLY, DEBUGGING
  8 .debug_frame  00000134  00000000  00000000  0000166c  2**2
                  CONTENTS, READONLY, DEBUGGING
  9 .debug_str    00000242  00000000  00000000  000017a0  2**0
                  CONTENTS, READONLY, DEBUGGING
 10 .debug_loc    0000033f  00000000  00000000  000019e2  2**0
                  CONTENTS, READONLY, DEBUGGING
 11 .debug_ranges 00000060  00000000  00000000  00001d21  2**0
                  CONTENTS, READONLY, DEBUGGING

Disassembly of section .text:

00000000 <__vectors>:
   0:	45 c0       	rjmp	.+138    	; 0x8c <__ctors_end>
   2:	00 00       	nop
   4:	60 c0       	rjmp	.+192    	; 0xc6 <__bad_interrupt>
   6:	00 00       	nop
   8:	5e c0       	rjmp	.+188    	; 0xc6 <__bad_interrupt>
   a:	00 00       	nop
   c:	5c c0       	rjmp	.+184    	; 0xc6 <__bad_interrupt>
   e:	00 00       	nop
  10:	5a c0       	rjmp	.+180    	; 0xc6 <__bad_interrupt>
  12:	00 00       	nop
  14:	58 c0       	rjmp	.+176    	; 0xc6 <__bad_interrupt>
  16:	00 00       	nop
  18:	56 c0       	rjmp	.+172    	; 0xc6 <__bad_interrupt>
  1a:	00 00       	nop
  1c:	54 c0       	rjmp	.+168    	; 0xc6 <__bad_interrupt>
  1e:	00 00       	nop
  20:	52 c0       	rjmp	.+164    	; 0xc6 <__bad_interrupt>
  22:	00 00       	nop
  24:	50 c0       	rjmp	.+160    	; 0xc6 <__bad_interrupt>
  26:	00 00       	nop
  28:	4e c0       	rjmp	.+156    	; 0xc6 <__bad_interrupt>
  2a:	00 00       	nop
  2c:	4c c0       	rjmp	.+152    	; 0xc6 <__bad_interrupt>
  2e:	00 00       	nop
  30:	4a c0       	rjmp	.+148    	; 0xc6 <__bad_interrupt>
  32:	00 00       	nop
  34:	48 c0       	rjmp	.+144    	; 0xc6 <__bad_interrupt>
  36:	00 00       	nop
  38:	46 c0       	rjmp	.+140    	; 0xc6 <__bad_interrupt>
  3a:	00 00       	nop
  3c:	44 c0       	rjmp	.+136    	; 0xc6 <__bad_interrupt>
  3e:	00 00       	nop
  40:	42 c0       	rjmp	.+132    	; 0xc6 <__bad_interrupt>
  42:	00 00       	nop
  44:	40 c0       	rjmp	.+128    	; 0xc6 <__bad_interrupt>
  46:	00 00       	nop
  48:	3e c0       	rjmp	.+124    	; 0xc6 <__bad_interrupt>
  4a:	00 00       	nop
  4c:	3c c0       	rjmp	.+120    	; 0xc6 <__bad_interrupt>
  4e:	00 00       	nop
  50:	3a c0       	rjmp	.+116    	; 0xc6 <__bad_interrupt>
  52:	00 00       	nop
  54:	38 c0       	rjmp	.+112    	; 0xc6 <__bad_interrupt>
  56:	00 00       	nop
  58:	36 c0       	rjmp	.+108    	; 0xc6 <__bad_interrupt>
  5a:	00 00       	nop
  5c:	34 c0       	rjmp	.+104    	; 0xc6 <__bad_interrupt>
  5e:	00 00       	nop
  60:	eb c0       	rjmp	.+470    	; 0x238 <__vector_24>
  62:	00 00       	nop
  64:	30 c0       	rjmp	.+96     	; 0xc6 <__bad_interrupt>
  66:	00 00       	nop
  68:	2e c0       	rjmp	.+92     	; 0xc6 <__bad_interrupt>
  6a:	00 00       	nop
  6c:	2c c0       	rjmp	.+88     	; 0xc6 <__bad_interrupt>
  6e:	00 00       	nop
  70:	2a c0       	rjmp	.+84     	; 0xc6 <__bad_interrupt>
  72:	00 00       	nop
  74:	28 c0       	rjmp	.+80     	; 0xc6 <__bad_interrupt>
  76:	00 00       	nop
  78:	26 c0       	rjmp	.+76     	; 0xc6 <__bad_interrupt>
  7a:	00 00       	nop
  7c:	24 c0       	rjmp	.+72     	; 0xc6 <__bad_interrupt>
  7e:	00 00       	nop
  80:	22 c0       	rjmp	.+68     	; 0xc6 <__bad_interrupt>
  82:	00 00       	nop
  84:	20 c0       	rjmp	.+64     	; 0xc6 <__bad_interrupt>
  86:	00 00       	nop
  88:	1e c0       	rjmp	.+60     	; 0xc6 <__bad_interrupt>
	...

0000008c <__ctors_end>:
  8c:	11 24       	eor	r1, r1
  8e:	1f be       	out	0x3f, r1	; 63
  90:	cf ef       	ldi	r28, 0xFF	; 255
  92:	d0 e4       	ldi	r29, 0x40	; 64
  94:	de bf       	out	0x3e, r29	; 62
  96:	cd bf       	out	0x3d, r28	; 61

00000098 <__do_copy_data>:
  98:	11 e0       	ldi	r17, 0x01	; 1
  9a:	a0 e0       	ldi	r26, 0x00	; 0
  9c:	b1 e0       	ldi	r27, 0x01	; 1
  9e:	ee e2       	ldi	r30, 0x2E	; 46
  a0:	f3 e0       	ldi	r31, 0x03	; 3
  a2:	00 e0       	ldi	r16, 0x00	; 0
  a4:	0b bf       	out	0x3b, r16	; 59
  a6:	02 c0       	rjmp	.+4      	; 0xac <__do_copy_data+0x14>
  a8:	07 90       	elpm	r0, Z+
  aa:	0d 92       	st	X+, r0
  ac:	a6 31       	cpi	r26, 0x16	; 22
  ae:	b1 07       	cpc	r27, r17
  b0:	d9 f7       	brne	.-10     	; 0xa8 <__do_copy_data+0x10>

000000b2 <__do_clear_bss>:
  b2:	21 e0       	ldi	r18, 0x01	; 1
  b4:	a6 e1       	ldi	r26, 0x16	; 22
  b6:	b1 e0       	ldi	r27, 0x01	; 1
  b8:	01 c0       	rjmp	.+2      	; 0xbc <.do_clear_bss_start>

000000ba <.do_clear_bss_loop>:
  ba:	1d 92       	st	X+, r1

000000bc <.do_clear_bss_start>:
  bc:	aa 31       	cpi	r26, 0x1A	; 26
  be:	b2 07       	cpc	r27, r18
  c0:	e1 f7       	brne	.-8      	; 0xba <.do_clear_bss_loop>
  c2:	a1 d0       	rcall	.+322    	; 0x206 <main>
  c4:	32 c1       	rjmp	.+612    	; 0x32a <_exit>

000000c6 <__bad_interrupt>:
  c6:	9c cf       	rjmp	.-200    	; 0x0 <__vectors>

000000c8 <LCD_Command>:
	if (row == 0 && pos<16)
	LCD_Command((pos & 0x0F)|0x80);		/* Command of first row and required position<16 */
	else if (row == 1 && pos<16)
	LCD_Command((pos & 0x0F)|0xC0);		/* Command of first row and required position<16 */
	LCD_String(str);					/* Call LCD string function */
}
  c8:	92 b1       	in	r25, 0x02	; 2
  ca:	28 2f       	mov	r18, r24
  cc:	20 7f       	andi	r18, 0xF0	; 240
  ce:	9f 70       	andi	r25, 0x0F	; 15
  d0:	92 2b       	or	r25, r18
  d2:	92 b9       	out	0x02, r25	; 2
  d4:	13 98       	cbi	0x02, 3	; 2
  d6:	12 9a       	sbi	0x02, 2	; 2
  d8:	35 e0       	ldi	r19, 0x05	; 5
  da:	3a 95       	dec	r19
  dc:	f1 f7       	brne	.-4      	; 0xda <LCD_Command+0x12>
  de:	00 00       	nop
  e0:	12 98       	cbi	0x02, 2	; 2
  e2:	ef e1       	ldi	r30, 0x1F	; 31
  e4:	f3 e0       	ldi	r31, 0x03	; 3
  e6:	31 97       	sbiw	r30, 0x01	; 1
  e8:	f1 f7       	brne	.-4      	; 0xe6 <LCD_Command+0x1e>
  ea:	00 c0       	rjmp	.+0      	; 0xec <LCD_Command+0x24>
  ec:	00 00       	nop
  ee:	22 b1       	in	r18, 0x02	; 2
  f0:	f0 e1       	ldi	r31, 0x10	; 16
  f2:	8f 9f       	mul	r24, r31
  f4:	c0 01       	movw	r24, r0
  f6:	11 24       	eor	r1, r1
  f8:	92 2f       	mov	r25, r18
  fa:	9f 70       	andi	r25, 0x0F	; 15
  fc:	89 2b       	or	r24, r25
  fe:	82 b9       	out	0x02, r24	; 2
 100:	12 9a       	sbi	0x02, 2	; 2
 102:	35 e0       	ldi	r19, 0x05	; 5
 104:	3a 95       	dec	r19
 106:	f1 f7       	brne	.-4      	; 0x104 <LCD_Command+0x3c>
 108:	00 00       	nop
 10a:	12 98       	cbi	0x02, 2	; 2
 10c:	8f e3       	ldi	r24, 0x3F	; 63
 10e:	9f e1       	ldi	r25, 0x1F	; 31
 110:	01 97       	sbiw	r24, 0x01	; 1
 112:	f1 f7       	brne	.-4      	; 0x110 <LCD_Command+0x48>
 114:	00 c0       	rjmp	.+0      	; 0x116 <LCD_Command+0x4e>
 116:	00 00       	nop
 118:	08 95       	ret

0000011a <LCD_Char>:
 11a:	92 b1       	in	r25, 0x02	; 2
 11c:	28 2f       	mov	r18, r24
 11e:	20 7f       	andi	r18, 0xF0	; 240
 120:	9f 70       	andi	r25, 0x0F	; 15
 122:	92 2b       	or	r25, r18
 124:	92 b9       	out	0x02, r25	; 2
 126:	13 9a       	sbi	0x02, 3	; 2
 128:	12 9a       	sbi	0x02, 2	; 2
 12a:	35 e0       	ldi	r19, 0x05	; 5
 12c:	3a 95       	dec	r19
 12e:	f1 f7       	brne	.-4      	; 0x12c <LCD_Char+0x12>
 130:	00 00       	nop
 132:	12 98       	cbi	0x02, 2	; 2
 134:	ef e1       	ldi	r30, 0x1F	; 31
 136:	f3 e0       	ldi	r31, 0x03	; 3
 138:	31 97       	sbiw	r30, 0x01	; 1
 13a:	f1 f7       	brne	.-4      	; 0x138 <LCD_Char+0x1e>
 13c:	00 c0       	rjmp	.+0      	; 0x13e <LCD_Char+0x24>
 13e:	00 00       	nop
 140:	22 b1       	in	r18, 0x02	; 2
 142:	f0 e1       	ldi	r31, 0x10	; 16
 144:	8f 9f       	mul	r24, r31
 146:	c0 01       	movw	r24, r0
 148:	11 24       	eor	r1, r1
 14a:	92 2f       	mov	r25, r18
 14c:	9f 70       	andi	r25, 0x0F	; 15
 14e:	89 2b       	or	r24, r25
 150:	82 b9       	out	0x02, r24	; 2
 152:	12 9a       	sbi	0x02, 2	; 2
 154:	35 e0       	ldi	r19, 0x05	; 5
 156:	3a 95       	dec	r19
 158:	f1 f7       	brne	.-4      	; 0x156 <LCD_Char+0x3c>
 15a:	00 00       	nop
 15c:	12 98       	cbi	0x02, 2	; 2
 15e:	8f e3       	ldi	r24, 0x3F	; 63
 160:	9f e1       	ldi	r25, 0x1F	; 31
 162:	01 97       	sbiw	r24, 0x01	; 1
 164:	f1 f7       	brne	.-4      	; 0x162 <LCD_Char+0x48>
 166:	00 c0       	rjmp	.+0      	; 0x168 <LCD_Char+0x4e>
 168:	00 00       	nop
 16a:	08 95       	ret

0000016c <LCD_Init>:
 16c:	8f ef       	ldi	r24, 0xFF	; 255
 16e:	81 b9       	out	0x01, r24	; 1
 170:	2f ef       	ldi	r18, 0xFF	; 255
 172:	89 ef       	ldi	r24, 0xF9	; 249
 174:	90 e0       	ldi	r25, 0x00	; 0
 176:	21 50       	subi	r18, 0x01	; 1
 178:	80 40       	sbci	r24, 0x00	; 0
 17a:	90 40       	sbci	r25, 0x00	; 0
 17c:	e1 f7       	brne	.-8      	; 0x176 <LCD_Init+0xa>
 17e:	00 c0       	rjmp	.+0      	; 0x180 <LCD_Init+0x14>
 180:	00 00       	nop
 182:	83 e3       	ldi	r24, 0x33	; 51
 184:	a1 df       	rcall	.-190    	; 0xc8 <LCD_Command>
 186:	82 e3       	ldi	r24, 0x32	; 50
 188:	9f df       	rcall	.-194    	; 0xc8 <LCD_Command>
 18a:	88 e2       	ldi	r24, 0x28	; 40
 18c:	9d df       	rcall	.-198    	; 0xc8 <LCD_Command>
 18e:	8c e0       	ldi	r24, 0x0C	; 12
 190:	9b df       	rcall	.-202    	; 0xc8 <LCD_Command>
 192:	86 e0       	ldi	r24, 0x06	; 6
 194:	99 df       	rcall	.-206    	; 0xc8 <LCD_Command>
 196:	81 e0       	ldi	r24, 0x01	; 1
 198:	97 df       	rcall	.-210    	; 0xc8 <LCD_Command>
 19a:	8f e3       	ldi	r24, 0x3F	; 63
 19c:	9f e1       	ldi	r25, 0x1F	; 31
 19e:	01 97       	sbiw	r24, 0x01	; 1
 1a0:	f1 f7       	brne	.-4      	; 0x19e <LCD_Init+0x32>
 1a2:	00 c0       	rjmp	.+0      	; 0x1a4 <LCD_Init+0x38>
 1a4:	00 00       	nop
 1a6:	80 e8       	ldi	r24, 0x80	; 128
 1a8:	8f cf       	rjmp	.-226    	; 0xc8 <LCD_Command>
 1aa:	08 95       	ret

000001ac <LCD_String>:
 1ac:	cf 93       	push	r28
 1ae:	df 93       	push	r29
 1b0:	ec 01       	movw	r28, r24
 1b2:	88 81       	ld	r24, Y
 1b4:	88 23       	and	r24, r24
 1b6:	29 f0       	breq	.+10     	; 0x1c2 <LCD_String+0x16>
 1b8:	21 96       	adiw	r28, 0x01	; 1
 1ba:	af df       	rcall	.-162    	; 0x11a <LCD_Char>
 1bc:	89 91       	ld	r24, Y+
 1be:	81 11       	cpse	r24, r1
 1c0:	fc cf       	rjmp	.-8      	; 0x1ba <LCD_String+0xe>
 1c2:	df 91       	pop	r29
 1c4:	cf 91       	pop	r28
 1c6:	08 95       	ret

000001c8 <LCD_Clear>:

void LCD_Clear()
{
	LCD_Command (0x01);					/* Clear display */
 1c8:	81 e0       	ldi	r24, 0x01	; 1
 1ca:	7e df       	rcall	.-260    	; 0xc8 <LCD_Command>
	#else
		//round up by default
		__ticks_dc = (uint32_t)(ceil(fabs(__tmp)));
	#endif

	__builtin_avr_delay_cycles(__ticks_dc);
 1cc:	8f e3       	ldi	r24, 0x3F	; 63
 1ce:	9f e1       	ldi	r25, 0x1F	; 31
 1d0:	01 97       	sbiw	r24, 0x01	; 1
 1d2:	f1 f7       	brne	.-4      	; 0x1d0 <LCD_Clear+0x8>
 1d4:	00 c0       	rjmp	.+0      	; 0x1d6 <LCD_Clear+0xe>
 1d6:	00 00       	nop
	_delay_ms(2);
	LCD_Command (0x80);					/* Cursor 1st row 0th position */
 1d8:	80 e8       	ldi	r24, 0x80	; 128
 1da:	76 cf       	rjmp	.-276    	; 0xc8 <LCD_Command>
 1dc:	08 95       	ret

000001de <Write_data_to_LCD>:
	//MCUCR = 1<<SM0 | 1<<ISC01 | 1<<ISC00;
	return 0;
}

void Write_data_to_LCD(uint16_t data)
{
 1de:	cf 93       	push	r28
 1e0:	df 93       	push	r29
 1e2:	ec 01       	movw	r28, r24
	//char buffer [16];
	LCD_Clear();
 1e4:	f1 df       	rcall	.-30     	; 0x1c8 <LCD_Clear>
	LCD_String("Distance:");
 1e6:	80 e0       	ldi	r24, 0x00	; 0
 1e8:	91 e0       	ldi	r25, 0x01	; 1
 1ea:	e0 df       	rcall	.-64     	; 0x1ac <LCD_String>
	LCD_Command(0x14);
 1ec:	84 e1       	ldi	r24, 0x14	; 20
 1ee:	6c df       	rcall	.-296    	; 0xc8 <LCD_Command>
    } else if (__radix < 2 || __radix > 36) {
	*__s = 0;
	return __s;
    } else {
	extern char *__itoa_ncheck (int, char *, unsigned char);
	return __itoa_ncheck (__val, __s, __radix);
 1f0:	4a e0       	ldi	r20, 0x0A	; 10
 1f2:	66 e1       	ldi	r22, 0x16	; 22
 1f4:	71 e0       	ldi	r23, 0x01	; 1
 1f6:	ce 01       	movw	r24, r28
 1f8:	65 d0       	rcall	.+202    	; 0x2c4 <__itoa_ncheck>
	//char lo = data & 0xFF;
	//char hi = data >> 8;
	//buffer[0] = lo;
	//buffer[1] = hi;
	itoa (data, buffer, 10);
	LCD_String(buffer);
 1fa:	86 e1       	ldi	r24, 0x16	; 22
 1fc:	91 e0       	ldi	r25, 0x01	; 1
 1fe:	d6 df       	rcall	.-84     	; 0x1ac <LCD_String>
	return 0;
}
 200:	df 91       	pop	r29
 202:	cf 91       	pop	r28
 204:	08 95       	ret

00000206 <main>:
int main(void)
{
	//volatile uint16_t data_out;
	//volatile char buffer [16];
	int a = 0;
	LCD_Init();
 206:	b2 df       	rcall	.-156    	; 0x16c <LCD_Init>
	LCD_Clear();
 208:	df df       	rcall	.-66     	; 0x1c8 <LCD_Clear>
	LCD_String("Device's On");
 20a:	8a e0       	ldi	r24, 0x0A	; 10
 20c:	91 e0       	ldi	r25, 0x01	; 1
 20e:	ce df       	rcall	.-100    	; 0x1ac <LCD_String>
 210:	2f ef       	ldi	r18, 0xFF	; 255
 212:	87 ea       	ldi	r24, 0xA7	; 167
 214:	91 e6       	ldi	r25, 0x61	; 97
 216:	21 50       	subi	r18, 0x01	; 1
 218:	80 40       	sbci	r24, 0x00	; 0
 21a:	90 40       	sbci	r25, 0x00	; 0
 21c:	e1 f7       	brne	.-8      	; 0x216 <main+0x10>
 21e:	00 c0       	rjmp	.+0      	; 0x220 <main+0x1a>
 220:	00 00       	nop
	/*
	enable ADC, Auto Trigger och sätter Free Running mode,
	 avbrott och sätter prescaler bits.
	 Osäker på ADATE
	*/
	ADCSRA = 1<<ADEN | 1<<ADATE | 1<<ADIE | 1<<ADPS1 | 1<<ADPS0;
 222:	8b ea       	ldi	r24, 0xAB	; 171
 224:	80 93 7a 00 	sts	0x007A, r24
	LCD_Init();
	LCD_Clear();
	LCD_String("Device's On");
	_delay_ms(2000);
	init_AD_conv();
	LCD_Clear();
 228:	cf df       	rcall	.-98     	; 0x1c8 <LCD_Clear>
	sei();
 22a:	78 94       	sei
	ADCSRA |= (1 << ADSC) | (1 << ADIF);
 22c:	ea e7       	ldi	r30, 0x7A	; 122
 22e:	f0 e0       	ldi	r31, 0x00	; 0
 230:	80 81       	ld	r24, Z
 232:	80 65       	ori	r24, 0x50	; 80
 234:	80 83       	st	Z, r24
 236:	ff cf       	rjmp	.-2      	; 0x236 <main+0x30>

00000238 <__vector_24>:

/*
		Det som typ återstår är förstå hur Free Running mode fungerar
*/
ISR(ADC_vect)
{
 238:	1f 92       	push	r1
 23a:	0f 92       	push	r0
 23c:	0f b6       	in	r0, 0x3f	; 63
 23e:	0f 92       	push	r0
 240:	11 24       	eor	r1, r1
 242:	0b b6       	in	r0, 0x3b	; 59
 244:	0f 92       	push	r0
 246:	2f 93       	push	r18
 248:	3f 93       	push	r19
 24a:	4f 93       	push	r20
 24c:	5f 93       	push	r21
 24e:	6f 93       	push	r22
 250:	7f 93       	push	r23
 252:	8f 93       	push	r24
 254:	9f 93       	push	r25
 256:	af 93       	push	r26
 258:	bf 93       	push	r27
 25a:	ef 93       	push	r30
 25c:	ff 93       	push	r31
	//OBS! ADCL ska läsas först sen ADCH, Görs det här???
	//data_out = (ADCL | (ADCH << 8));
	data_out = ADCL;
 25e:	80 91 78 00 	lds	r24, 0x0078
 262:	90 e0       	ldi	r25, 0x00	; 0
 264:	90 93 19 01 	sts	0x0119, r25
 268:	80 93 18 01 	sts	0x0118, r24
	data_out = (uint16_t)(data_out | (ADCH << 8));
 26c:	20 91 79 00 	lds	r18, 0x0079
 270:	80 91 18 01 	lds	r24, 0x0118
 274:	90 91 19 01 	lds	r25, 0x0119
 278:	92 2b       	or	r25, r18
 27a:	90 93 19 01 	sts	0x0119, r25
 27e:	80 93 18 01 	sts	0x0118, r24
	//data_out = ADCH;
	//kan bli så att den aldrig hamnar i Write_to_LCD...
	Write_data_to_LCD(data_out);
 282:	80 91 18 01 	lds	r24, 0x0118
 286:	90 91 19 01 	lds	r25, 0x0119
 28a:	a9 df       	rcall	.-174    	; 0x1de <Write_data_to_LCD>
 28c:	2f ef       	ldi	r18, 0xFF	; 255
 28e:	89 e6       	ldi	r24, 0x69	; 105
 290:	98 e1       	ldi	r25, 0x18	; 24
 292:	21 50       	subi	r18, 0x01	; 1
 294:	80 40       	sbci	r24, 0x00	; 0
 296:	90 40       	sbci	r25, 0x00	; 0
 298:	e1 f7       	brne	.-8      	; 0x292 <__vector_24+0x5a>
 29a:	00 c0       	rjmp	.+0      	; 0x29c <__vector_24+0x64>
 29c:	00 00       	nop
	_delay_ms(500);
	//hoppar man ur avbrottet direkt efter läsningen av ADCH 
	//eller måste man göra detta?
	//ADCSRA = (0 << ADEN) | (0 << ADIE);
	
 29e:	ff 91       	pop	r31
 2a0:	ef 91       	pop	r30
 2a2:	bf 91       	pop	r27
 2a4:	af 91       	pop	r26
 2a6:	9f 91       	pop	r25
 2a8:	8f 91       	pop	r24
 2aa:	7f 91       	pop	r23
 2ac:	6f 91       	pop	r22
 2ae:	5f 91       	pop	r21
 2b0:	4f 91       	pop	r20
 2b2:	3f 91       	pop	r19
 2b4:	2f 91       	pop	r18
 2b6:	0f 90       	pop	r0
 2b8:	0b be       	out	0x3b, r0	; 59
 2ba:	0f 90       	pop	r0
 2bc:	0f be       	out	0x3f, r0	; 63
 2be:	0f 90       	pop	r0
 2c0:	1f 90       	pop	r1
 2c2:	18 95       	reti

000002c4 <__itoa_ncheck>:
 2c4:	bb 27       	eor	r27, r27
 2c6:	4a 30       	cpi	r20, 0x0A	; 10
 2c8:	31 f4       	brne	.+12     	; 0x2d6 <__itoa_ncheck+0x12>
 2ca:	99 23       	and	r25, r25
 2cc:	22 f4       	brpl	.+8      	; 0x2d6 <__itoa_ncheck+0x12>
 2ce:	bd e2       	ldi	r27, 0x2D	; 45
 2d0:	90 95       	com	r25
 2d2:	81 95       	neg	r24
 2d4:	9f 4f       	sbci	r25, 0xFF	; 255
 2d6:	01 c0       	rjmp	.+2      	; 0x2da <__utoa_common>

000002d8 <__utoa_ncheck>:
 2d8:	bb 27       	eor	r27, r27

000002da <__utoa_common>:
 2da:	fb 01       	movw	r30, r22
 2dc:	55 27       	eor	r21, r21
 2de:	aa 27       	eor	r26, r26
 2e0:	88 0f       	add	r24, r24
 2e2:	99 1f       	adc	r25, r25
 2e4:	aa 1f       	adc	r26, r26
 2e6:	a4 17       	cp	r26, r20
 2e8:	10 f0       	brcs	.+4      	; 0x2ee <__utoa_common+0x14>
 2ea:	a4 1b       	sub	r26, r20
 2ec:	83 95       	inc	r24
 2ee:	50 51       	subi	r21, 0x10	; 16
 2f0:	b9 f7       	brne	.-18     	; 0x2e0 <__utoa_common+0x6>
 2f2:	a0 5d       	subi	r26, 0xD0	; 208
 2f4:	aa 33       	cpi	r26, 0x3A	; 58
 2f6:	08 f0       	brcs	.+2      	; 0x2fa <__utoa_common+0x20>
 2f8:	a9 5d       	subi	r26, 0xD9	; 217
 2fa:	a1 93       	st	Z+, r26
 2fc:	00 97       	sbiw	r24, 0x00	; 0
 2fe:	79 f7       	brne	.-34     	; 0x2de <__utoa_common+0x4>
 300:	b1 11       	cpse	r27, r1
 302:	b1 93       	st	Z+, r27
 304:	11 92       	st	Z+, r1
 306:	cb 01       	movw	r24, r22
 308:	00 c0       	rjmp	.+0      	; 0x30a <strrev>

0000030a <strrev>:
 30a:	dc 01       	movw	r26, r24
 30c:	fc 01       	movw	r30, r24
 30e:	67 2f       	mov	r22, r23
 310:	71 91       	ld	r23, Z+
 312:	77 23       	and	r23, r23
 314:	e1 f7       	brne	.-8      	; 0x30e <strrev+0x4>
 316:	32 97       	sbiw	r30, 0x02	; 2
 318:	04 c0       	rjmp	.+8      	; 0x322 <strrev+0x18>
 31a:	7c 91       	ld	r23, X
 31c:	6d 93       	st	X+, r22
 31e:	70 83       	st	Z, r23
 320:	62 91       	ld	r22, -Z
 322:	ae 17       	cp	r26, r30
 324:	bf 07       	cpc	r27, r31
 326:	c8 f3       	brcs	.-14     	; 0x31a <strrev+0x10>
 328:	08 95       	ret

0000032a <_exit>:
 32a:	f8 94       	cli

0000032c <__stop_program>:
 32c:	ff cf       	rjmp	.-2      	; 0x32c <__stop_program>
