
Sensor_main.elf:     file format elf32-avr

Sections:
Idx Name          Size      VMA       LMA       File off  Algn
  0 .data         00000008  00800100  0000173c  000017d0  2**0
                  CONTENTS, ALLOC, LOAD, DATA
  1 .text         0000173c  00000000  00000000  00000094  2**1
                  CONTENTS, ALLOC, LOAD, READONLY, CODE
  2 .bss          00000038  00800108  00800108  000017d8  2**0
                  ALLOC
  3 .comment      00000030  00000000  00000000  000017d8  2**0
                  CONTENTS, READONLY
  4 .debug_aranges 00000208  00000000  00000000  00001808  2**0
                  CONTENTS, READONLY, DEBUGGING
  5 .debug_info   00002699  00000000  00000000  00001a10  2**0
                  CONTENTS, READONLY, DEBUGGING
  6 .debug_abbrev 00000ad1  00000000  00000000  000040a9  2**0
                  CONTENTS, READONLY, DEBUGGING
  7 .debug_line   000012bb  00000000  00000000  00004b7a  2**0
                  CONTENTS, READONLY, DEBUGGING
  8 .debug_frame  000006c4  00000000  00000000  00005e38  2**2
                  CONTENTS, READONLY, DEBUGGING
  9 .debug_str    00000691  00000000  00000000  000064fc  2**0
                  CONTENTS, READONLY, DEBUGGING
 10 .debug_loc    00001c30  00000000  00000000  00006b8d  2**0
                  CONTENTS, READONLY, DEBUGGING
 11 .debug_ranges 000001a8  00000000  00000000  000087bd  2**0
                  CONTENTS, READONLY, DEBUGGING

Disassembly of section .text:

00000000 <__vectors>:
       0:	96 c0       	rjmp	.+300    	; 0x12e <__ctors_end>
       2:	00 00       	nop
       4:	b2 c0       	rjmp	.+356    	; 0x16a <__bad_interrupt>
       6:	00 00       	nop
       8:	b0 c0       	rjmp	.+352    	; 0x16a <__bad_interrupt>
       a:	00 00       	nop
       c:	ae c0       	rjmp	.+348    	; 0x16a <__bad_interrupt>
       e:	00 00       	nop
      10:	ac c0       	rjmp	.+344    	; 0x16a <__bad_interrupt>
      12:	00 00       	nop
      14:	aa c0       	rjmp	.+340    	; 0x16a <__bad_interrupt>
      16:	00 00       	nop
      18:	a8 c0       	rjmp	.+336    	; 0x16a <__bad_interrupt>
      1a:	00 00       	nop
      1c:	a6 c0       	rjmp	.+332    	; 0x16a <__bad_interrupt>
      1e:	00 00       	nop
      20:	a4 c0       	rjmp	.+328    	; 0x16a <__bad_interrupt>
      22:	00 00       	nop
      24:	a2 c0       	rjmp	.+324    	; 0x16a <__bad_interrupt>
      26:	00 00       	nop
      28:	a0 c0       	rjmp	.+320    	; 0x16a <__bad_interrupt>
      2a:	00 00       	nop
      2c:	9e c0       	rjmp	.+316    	; 0x16a <__bad_interrupt>
      2e:	00 00       	nop
      30:	9c c0       	rjmp	.+312    	; 0x16a <__bad_interrupt>
      32:	00 00       	nop
      34:	9a c0       	rjmp	.+308    	; 0x16a <__bad_interrupt>
      36:	00 00       	nop
      38:	98 c0       	rjmp	.+304    	; 0x16a <__bad_interrupt>
      3a:	00 00       	nop
      3c:	93 c6       	rjmp	.+3366   	; 0xd64 <__vector_15>
      3e:	00 00       	nop
      40:	94 c0       	rjmp	.+296    	; 0x16a <__bad_interrupt>
      42:	00 00       	nop
      44:	92 c0       	rjmp	.+292    	; 0x16a <__bad_interrupt>
      46:	00 00       	nop
      48:	90 c0       	rjmp	.+288    	; 0x16a <__bad_interrupt>
      4a:	00 00       	nop
      4c:	8e c0       	rjmp	.+284    	; 0x16a <__bad_interrupt>
      4e:	00 00       	nop
      50:	8c c0       	rjmp	.+280    	; 0x16a <__bad_interrupt>
      52:	00 00       	nop
      54:	8a c0       	rjmp	.+276    	; 0x16a <__bad_interrupt>
      56:	00 00       	nop
      58:	88 c0       	rjmp	.+272    	; 0x16a <__bad_interrupt>
      5a:	00 00       	nop
      5c:	86 c0       	rjmp	.+268    	; 0x16a <__bad_interrupt>
      5e:	00 00       	nop
      60:	84 c0       	rjmp	.+264    	; 0x16a <__bad_interrupt>
      62:	00 00       	nop
      64:	82 c0       	rjmp	.+260    	; 0x16a <__bad_interrupt>
      66:	00 00       	nop
      68:	bc c0       	rjmp	.+376    	; 0x1e2 <__vector_26>
      6a:	00 00       	nop
      6c:	7e c0       	rjmp	.+252    	; 0x16a <__bad_interrupt>
      6e:	00 00       	nop
      70:	7c c0       	rjmp	.+248    	; 0x16a <__bad_interrupt>
      72:	00 00       	nop
      74:	7a c0       	rjmp	.+244    	; 0x16a <__bad_interrupt>
      76:	00 00       	nop
      78:	78 c0       	rjmp	.+240    	; 0x16a <__bad_interrupt>
      7a:	00 00       	nop
      7c:	76 c0       	rjmp	.+236    	; 0x16a <__bad_interrupt>
      7e:	00 00       	nop
      80:	74 c0       	rjmp	.+232    	; 0x16a <__bad_interrupt>
      82:	00 00       	nop
      84:	72 c0       	rjmp	.+228    	; 0x16a <__bad_interrupt>
      86:	00 00       	nop
      88:	70 c0       	rjmp	.+224    	; 0x16a <__bad_interrupt>
      8a:	00 00       	nop
      8c:	12 01       	movw	r2, r4
      8e:	5b 01       	movw	r10, r22
      90:	5b 01       	movw	r10, r22
      92:	5b 01       	movw	r10, r22
      94:	5b 01       	movw	r10, r22
      96:	5b 01       	movw	r10, r22
      98:	5b 01       	movw	r10, r22
      9a:	5b 01       	movw	r10, r22
      9c:	1a 01       	movw	r2, r20
      9e:	5b 01       	movw	r10, r22
      a0:	5b 01       	movw	r10, r22
      a2:	5b 01       	movw	r10, r22
      a4:	5b 01       	movw	r10, r22
      a6:	5b 01       	movw	r10, r22
      a8:	5b 01       	movw	r10, r22
      aa:	5b 01       	movw	r10, r22
      ac:	23 01       	movw	r4, r6
      ae:	5b 01       	movw	r10, r22
      b0:	5b 01       	movw	r10, r22
      b2:	5b 01       	movw	r10, r22
      b4:	5b 01       	movw	r10, r22
      b6:	5b 01       	movw	r10, r22
      b8:	5b 01       	movw	r10, r22
      ba:	5b 01       	movw	r10, r22
      bc:	2b 01       	movw	r4, r22
      be:	5b 01       	movw	r10, r22
      c0:	5b 01       	movw	r10, r22
      c2:	5b 01       	movw	r10, r22
      c4:	5b 01       	movw	r10, r22
      c6:	5b 01       	movw	r10, r22
      c8:	5b 01       	movw	r10, r22
      ca:	5b 01       	movw	r10, r22
      cc:	2d 01       	movw	r4, r26
      ce:	5b 01       	movw	r10, r22
      d0:	5b 01       	movw	r10, r22
      d2:	5b 01       	movw	r10, r22
      d4:	5b 01       	movw	r10, r22
      d6:	5b 01       	movw	r10, r22
      d8:	5b 01       	movw	r10, r22
      da:	5b 01       	movw	r10, r22
      dc:	5b 01       	movw	r10, r22
      de:	5b 01       	movw	r10, r22
      e0:	5b 01       	movw	r10, r22
      e2:	5b 01       	movw	r10, r22
      e4:	5b 01       	movw	r10, r22
      e6:	5b 01       	movw	r10, r22
      e8:	5b 01       	movw	r10, r22
      ea:	5b 01       	movw	r10, r22
      ec:	5b 01       	movw	r10, r22
      ee:	5b 01       	movw	r10, r22
      f0:	5b 01       	movw	r10, r22
      f2:	5b 01       	movw	r10, r22
      f4:	5b 01       	movw	r10, r22
      f6:	5b 01       	movw	r10, r22
      f8:	5b 01       	movw	r10, r22
      fa:	5b 01       	movw	r10, r22
      fc:	4c 01       	movw	r8, r24
      fe:	5b 01       	movw	r10, r22
     100:	5b 01       	movw	r10, r22
     102:	5b 01       	movw	r10, r22
     104:	5b 01       	movw	r10, r22
     106:	5b 01       	movw	r10, r22
     108:	5b 01       	movw	r10, r22
     10a:	5b 01       	movw	r10, r22
     10c:	5b 01       	movw	r10, r22
     10e:	5b 01       	movw	r10, r22
     110:	5b 01       	movw	r10, r22
     112:	5b 01       	movw	r10, r22
     114:	5b 01       	movw	r10, r22
     116:	5b 01       	movw	r10, r22
     118:	5b 01       	movw	r10, r22
     11a:	5b 01       	movw	r10, r22
     11c:	56 01       	movw	r10, r12
     11e:	5b 01       	movw	r10, r22
     120:	5b 01       	movw	r10, r22
     122:	5b 01       	movw	r10, r22
     124:	5b 01       	movw	r10, r22
     126:	5b 01       	movw	r10, r22
     128:	5b 01       	movw	r10, r22
     12a:	5b 01       	movw	r10, r22
     12c:	50 01       	movw	r10, r0

0000012e <__ctors_end>:
     12e:	11 24       	eor	r1, r1
     130:	1f be       	out	0x3f, r1	; 63
     132:	cf ef       	ldi	r28, 0xFF	; 255
     134:	d0 e4       	ldi	r29, 0x40	; 64
     136:	de bf       	out	0x3e, r29	; 62
     138:	cd bf       	out	0x3d, r28	; 61

0000013a <__do_copy_data>:
     13a:	11 e0       	ldi	r17, 0x01	; 1
     13c:	a0 e0       	ldi	r26, 0x00	; 0
     13e:	b1 e0       	ldi	r27, 0x01	; 1
     140:	ec e3       	ldi	r30, 0x3C	; 60
     142:	f7 e1       	ldi	r31, 0x17	; 23
     144:	00 e0       	ldi	r16, 0x00	; 0
     146:	0b bf       	out	0x3b, r16	; 59
     148:	02 c0       	rjmp	.+4      	; 0x14e <__do_copy_data+0x14>
     14a:	07 90       	elpm	r0, Z+
     14c:	0d 92       	st	X+, r0
     14e:	a8 30       	cpi	r26, 0x08	; 8
     150:	b1 07       	cpc	r27, r17
     152:	d9 f7       	brne	.-10     	; 0x14a <__do_copy_data+0x10>

00000154 <__do_clear_bss>:
     154:	21 e0       	ldi	r18, 0x01	; 1
     156:	a8 e0       	ldi	r26, 0x08	; 8
     158:	b1 e0       	ldi	r27, 0x01	; 1
     15a:	01 c0       	rjmp	.+2      	; 0x15e <.do_clear_bss_start>

0000015c <.do_clear_bss_loop>:
     15c:	1d 92       	st	X+, r1

0000015e <.do_clear_bss_start>:
     15e:	a0 34       	cpi	r26, 0x40	; 64
     160:	b2 07       	cpc	r27, r18
     162:	e1 f7       	brne	.-8      	; 0x15c <.do_clear_bss_loop>
     164:	b5 d5       	rcall	.+2922   	; 0xcd0 <main>
     166:	0c 94 9c 0b 	jmp	0x1738	; 0x1738 <_exit>

0000016a <__bad_interrupt>:
     16a:	4a cf       	rjmp	.-364    	; 0x0 <__vectors>

0000016c <create_empty_sensor>:
#include <stdio.h>
#include <stdbool.h>
#include "FIFO_Queue.h"

Sensor_Data* create_empty_sensor(bool data)
{
     16c:	cf 93       	push	r28
     16e:	c8 2f       	mov	r28, r24
	Sensor_Data sd;
	Sensor_Data* sd_p = malloc(sizeof(sd));
     170:	81 e3       	ldi	r24, 0x31	; 49
     172:	91 e0       	ldi	r25, 0x01	; 1
     174:	0e 94 75 0a 	call	0x14ea	; 0x14ea <malloc>
     178:	fc 01       	movw	r30, r24
	sd_p->acc_x = 0;
     17a:	10 82       	st	Z, r1
     17c:	11 82       	std	Z+1, r1	; 0x01
     17e:	12 82       	std	Z+2, r1	; 0x02
     180:	13 82       	std	Z+3, r1	; 0x03
	sd_p->acc_y = 0;
     182:	14 82       	std	Z+4, r1	; 0x04
     184:	15 82       	std	Z+5, r1	; 0x05
     186:	16 82       	std	Z+6, r1	; 0x06
     188:	17 82       	std	Z+7, r1	; 0x07
	sd_p->acc_z = 0;
     18a:	10 86       	std	Z+8, r1	; 0x08
     18c:	11 86       	std	Z+9, r1	; 0x09
     18e:	12 86       	std	Z+10, r1	; 0x0a
     190:	13 86       	std	Z+11, r1	; 0x0b
	sd_p->gyro_x = 0;
     192:	14 86       	std	Z+12, r1	; 0x0c
     194:	15 86       	std	Z+13, r1	; 0x0d
     196:	16 86       	std	Z+14, r1	; 0x0e
     198:	17 86       	std	Z+15, r1	; 0x0f
	sd_p->gyro_y = 0;
     19a:	10 8a       	std	Z+16, r1	; 0x10
     19c:	11 8a       	std	Z+17, r1	; 0x11
     19e:	12 8a       	std	Z+18, r1	; 0x12
     1a0:	13 8a       	std	Z+19, r1	; 0x13
	sd_p->gyro_z = 0;
     1a2:	14 8a       	std	Z+20, r1	; 0x14
     1a4:	15 8a       	std	Z+21, r1	; 0x15
     1a6:	16 8a       	std	Z+22, r1	; 0x16
     1a8:	17 8a       	std	Z+23, r1	; 0x17
	//sd_p->tof_distance = 0;
	sd_p->has_data = data;
     1aa:	dc 01       	movw	r26, r24
     1ac:	a0 5d       	subi	r26, 0xD0	; 208
     1ae:	be 4f       	sbci	r27, 0xFE	; 254
     1b0:	cc 93       	st	X, r28
	return sd_p;
}
     1b2:	cf 91       	pop	r28
     1b4:	08 95       	ret

000001b6 <i2c_init>:
}

void i2c_send_data(uint8_t data)
{
		TWDR = data;
		TWCR = (1 << TWINT)|(0 << TWSTA)|(0 << TWSTO)|(1 << TWEN)|(1 << TWIE);
     1b6:	10 92 b9 00 	sts	0x00B9, r1
     1ba:	82 e9       	ldi	r24, 0x92	; 146
     1bc:	80 93 b8 00 	sts	0x00B8, r24
     1c0:	85 e0       	ldi	r24, 0x05	; 5
     1c2:	80 93 bc 00 	sts	0x00BC, r24
     1c6:	08 95       	ret

000001c8 <i2c_start>:
     1c8:	85 ea       	ldi	r24, 0xA5	; 165
     1ca:	80 93 bc 00 	sts	0x00BC, r24
     1ce:	10 92 07 01 	sts	0x0107, r1
     1d2:	08 95       	ret

000001d4 <i2c_stop>:
     1d4:	85 e9       	ldi	r24, 0x95	; 149
     1d6:	80 93 bc 00 	sts	0x00BC, r24
     1da:	81 e0       	ldi	r24, 0x01	; 1
     1dc:	80 93 07 01 	sts	0x0107, r24
     1e0:	08 95       	ret

000001e2 <__vector_26>:
-Wondering if the i2c_stop should not set TWIE to 1, it should stop there.
===========================================================================================*/


ISR(TWI_vect)
{
     1e2:	1f 92       	push	r1
     1e4:	0f 92       	push	r0
     1e6:	0f b6       	in	r0, 0x3f	; 63
     1e8:	0f 92       	push	r0
     1ea:	11 24       	eor	r1, r1
     1ec:	0b b6       	in	r0, 0x3b	; 59
     1ee:	0f 92       	push	r0
     1f0:	2f 93       	push	r18
     1f2:	3f 93       	push	r19
     1f4:	4f 93       	push	r20
     1f6:	5f 93       	push	r21
     1f8:	6f 93       	push	r22
     1fa:	7f 93       	push	r23
     1fc:	8f 93       	push	r24
     1fe:	9f 93       	push	r25
     200:	af 93       	push	r26
     202:	bf 93       	push	r27
     204:	ef 93       	push	r30
     206:	ff 93       	push	r31
	uint8_t status = (TWSR & 0xF8);
     208:	80 91 b9 00 	lds	r24, 0x00B9
     20c:	88 7f       	andi	r24, 0xF8	; 248
	switch (status)
     20e:	90 e0       	ldi	r25, 0x00	; 0
     210:	fc 01       	movw	r30, r24
     212:	38 97       	sbiw	r30, 0x08	; 8
     214:	e1 35       	cpi	r30, 0x51	; 81
     216:	f1 05       	cpc	r31, r1
     218:	08 f0       	brcs	.+2      	; 0x21c <__vector_26+0x3a>
     21a:	4d c0       	rjmp	.+154    	; 0x2b6 <__vector_26+0xd4>
     21c:	ea 5b       	subi	r30, 0xBA	; 186
     21e:	ff 4f       	sbci	r31, 0xFF	; 255
     220:	0c 94 38 0a 	jmp	0x1470	; 0x1470 <__tablejump2__>
	{
		case TW_START: //0x08
		i2c_send_data(device_addr + I2C_WRITE);
     224:	80 91 2c 01 	lds	r24, 0x012C
	i2c_done = 1;
}

void i2c_send_data(uint8_t data)
{
		TWDR = data;
     228:	80 93 bb 00 	sts	0x00BB, r24
		TWCR = (1 << TWINT)|(0 << TWSTA)|(0 << TWSTO)|(1 << TWEN)|(1 << TWIE);
     22c:	85 e8       	ldi	r24, 0x85	; 133
     22e:	80 93 bc 00 	sts	0x00BC, r24
     232:	41 c0       	rjmp	.+130    	; 0x2b6 <__vector_26+0xd4>
	{
		case TW_START: //0x08
		i2c_send_data(device_addr + I2C_WRITE);
		break;
		case TW_REP_START: //0x10
		i2c_send_data(device_addr + I2C_READ);
     234:	80 91 2c 01 	lds	r24, 0x012C
     238:	8f 5f       	subi	r24, 0xFF	; 255
	i2c_done = 1;
}

void i2c_send_data(uint8_t data)
{
		TWDR = data;
     23a:	80 93 bb 00 	sts	0x00BB, r24
		TWCR = (1 << TWINT)|(0 << TWSTA)|(0 << TWSTO)|(1 << TWEN)|(1 << TWIE);
     23e:	85 e8       	ldi	r24, 0x85	; 133
     240:	80 93 bc 00 	sts	0x00BC, r24
     244:	38 c0       	rjmp	.+112    	; 0x2b6 <__vector_26+0xd4>
		break;
		case TW_REP_START: //0x10
		i2c_send_data(device_addr + I2C_READ);
		break;
		case TW_MT_SLA_ACK: //3
		i2c_send_data(register_addr); //load the register we want to handle
     246:	80 91 2d 01 	lds	r24, 0x012D
	i2c_done = 1;
}

void i2c_send_data(uint8_t data)
{
		TWDR = data;
     24a:	80 93 bb 00 	sts	0x00BB, r24
		TWCR = (1 << TWINT)|(0 << TWSTA)|(0 << TWSTO)|(1 << TWEN)|(1 << TWIE);
     24e:	85 e8       	ldi	r24, 0x85	; 133
     250:	80 93 bc 00 	sts	0x00BC, r24
     254:	30 c0       	rjmp	.+96     	; 0x2b6 <__vector_26+0xd4>
		break;
		case TW_MT_SLA_ACK: //3
		i2c_send_data(register_addr); //load the register we want to handle
		break;
		case TW_MT_SLA_NACK: //4
		i2c_stop();	
     256:	be df       	rcall	.-132    	; 0x1d4 <i2c_stop>
		break;
     258:	2e c0       	rjmp	.+92     	; 0x2b6 <__vector_26+0xd4>
		case TW_MT_DATA_ACK: //5
		if(write_to_slave)
     25a:	80 91 06 01 	lds	r24, 0x0106
     25e:	88 23       	and	r24, r24
     260:	c9 f0       	breq	.+50     	; 0x294 <__vector_26+0xb2>
		{
			if(n_o_writes == 0)
     262:	80 91 0a 01 	lds	r24, 0x010A
     266:	90 91 0b 01 	lds	r25, 0x010B
     26a:	89 2b       	or	r24, r25
     26c:	11 f4       	brne	.+4      	; 0x272 <__vector_26+0x90>
			{
				i2c_stop();
     26e:	b2 df       	rcall	.-156    	; 0x1d4 <i2c_stop>
				break;
     270:	22 c0       	rjmp	.+68     	; 0x2b6 <__vector_26+0xd4>
			}
			else
			{
				i2c_send_data(trans_data);
     272:	80 91 2f 01 	lds	r24, 0x012F
	i2c_done = 1;
}

void i2c_send_data(uint8_t data)
{
		TWDR = data;
     276:	80 93 bb 00 	sts	0x00BB, r24
		TWCR = (1 << TWINT)|(0 << TWSTA)|(0 << TWSTO)|(1 << TWEN)|(1 << TWIE);
     27a:	85 e8       	ldi	r24, 0x85	; 133
     27c:	80 93 bc 00 	sts	0x00BC, r24
			}
			else
			{
				i2c_send_data(trans_data);
			}
			n_o_writes = n_o_writes - 1; //placeringen är svår. vi minskade den innan vi hade använt den
     280:	80 91 0a 01 	lds	r24, 0x010A
     284:	90 91 0b 01 	lds	r25, 0x010B
     288:	01 97       	sbiw	r24, 0x01	; 1
     28a:	90 93 0b 01 	sts	0x010B, r25
     28e:	80 93 0a 01 	sts	0x010A, r24
     292:	11 c0       	rjmp	.+34     	; 0x2b6 <__vector_26+0xd4>
		}
		else
		{
			i2c_start(); //repeated start
     294:	99 df       	rcall	.-206    	; 0x1c8 <i2c_start>
     296:	0f c0       	rjmp	.+30     	; 0x2b6 <__vector_26+0xd4>
		}
		
		break;
		case TW_MR_SLA_ACK: //6
		TWCR = (1 << TWINT)|(0 << TWSTA)|(0 << TWSTO)|(0 << TWEA)|(1 << TWEN)|(1 << TWIE);
     298:	85 e8       	ldi	r24, 0x85	; 133
     29a:	80 93 bc 00 	sts	0x00BC, r24
		break;
     29e:	0b c0       	rjmp	.+22     	; 0x2b6 <__vector_26+0xd4>
		case TW_MR_DATA_NACK: //7
		rec_data = TWDR;
     2a0:	80 91 bb 00 	lds	r24, 0x00BB
     2a4:	80 93 2e 01 	sts	0x012E, r24
		i2c_stop();
     2a8:	95 df       	rcall	.-214    	; 0x1d4 <i2c_stop>
		break;
     2aa:	05 c0       	rjmp	.+10     	; 0x2b6 <__vector_26+0xd4>
		case TW_MR_DATA_ACK: //8
		rec_data = TWDR;
     2ac:	80 91 bb 00 	lds	r24, 0x00BB
     2b0:	80 93 2e 01 	sts	0x012E, r24
		i2c_stop();
     2b4:	8f df       	rcall	.-226    	; 0x1d4 <i2c_stop>

		break;
	}
}
     2b6:	ff 91       	pop	r31
     2b8:	ef 91       	pop	r30
     2ba:	bf 91       	pop	r27
     2bc:	af 91       	pop	r26
     2be:	9f 91       	pop	r25
     2c0:	8f 91       	pop	r24
     2c2:	7f 91       	pop	r23
     2c4:	6f 91       	pop	r22
     2c6:	5f 91       	pop	r21
     2c8:	4f 91       	pop	r20
     2ca:	3f 91       	pop	r19
     2cc:	2f 91       	pop	r18
     2ce:	0f 90       	pop	r0
     2d0:	0b be       	out	0x3b, r0	; 59
     2d2:	0f 90       	pop	r0
     2d4:	0f be       	out	0x3f, r0	; 63
     2d6:	0f 90       	pop	r0
     2d8:	1f 90       	pop	r1
     2da:	18 95       	reti

000002dc <i2c_write_reg>:

void i2c_write_reg(uint8_t device_address, uint8_t reg_addr, uint8_t data, int n)
{
	while(!i2c_done){};
     2dc:	90 91 07 01 	lds	r25, 0x0107
     2e0:	99 23       	and	r25, r25
     2e2:	e1 f3       	breq	.-8      	; 0x2dc <i2c_write_reg>
	n_o_writes = n;
     2e4:	30 93 0b 01 	sts	0x010B, r19
     2e8:	20 93 0a 01 	sts	0x010A, r18
	register_addr = reg_addr;
     2ec:	60 93 2d 01 	sts	0x012D, r22
	device_addr = device_address;
     2f0:	80 93 2c 01 	sts	0x012C, r24
	trans_data = data;
     2f4:	40 93 2f 01 	sts	0x012F, r20
	write_to_slave = 1;
     2f8:	81 e0       	ldi	r24, 0x01	; 1
     2fa:	80 93 06 01 	sts	0x0106, r24
	i2c_start();
     2fe:	64 cf       	rjmp	.-312    	; 0x1c8 <i2c_start>
     300:	08 95       	ret

00000302 <i2c_read_reg>:
}

uint8_t i2c_read_reg(uint8_t device_address, uint8_t reg_addr, int n)
{
	while(!i2c_done){};
     302:	90 91 07 01 	lds	r25, 0x0107
     306:	99 23       	and	r25, r25
     308:	e1 f3       	breq	.-8      	; 0x302 <i2c_read_reg>
	n_o_reads = n;
     30a:	50 93 09 01 	sts	0x0109, r21
     30e:	40 93 08 01 	sts	0x0108, r20
	register_addr = reg_addr;
     312:	60 93 2d 01 	sts	0x012D, r22
	device_addr = device_address;
     316:	80 93 2c 01 	sts	0x012C, r24
	write_to_slave = 0;
     31a:	10 92 06 01 	sts	0x0106, r1
	i2c_start();
     31e:	54 df       	rcall	.-344    	; 0x1c8 <i2c_start>
	while(!i2c_done){};
     320:	80 91 07 01 	lds	r24, 0x0107
     324:	88 23       	and	r24, r24
     326:	e1 f3       	breq	.-8      	; 0x320 <i2c_read_reg+0x1e>
	return rec_data;
     328:	80 91 2e 01 	lds	r24, 0x012E
}
     32c:	08 95       	ret

0000032e <led_blink_red>:
}

void led_blink_red (uint16_t i)
{
	//Blink LED "i" number of times
	for (; i>0; --i)
     32e:	00 97       	sbiw	r24, 0x00	; 0
     330:	b9 f0       	breq	.+46     	; 0x360 <led_blink_red+0x32>
	{
		PORTB|=(1<<0);
     332:	28 9a       	sbi	0x05, 0	; 5
	#else
		//round up by default
		__ticks_dc = (uint32_t)(ceil(fabs(__tmp)));
	#endif

	__builtin_avr_delay_cycles(__ticks_dc);
     334:	2f ef       	ldi	r18, 0xFF	; 255
     336:	39 e6       	ldi	r19, 0x69	; 105
     338:	48 e1       	ldi	r20, 0x18	; 24
     33a:	21 50       	subi	r18, 0x01	; 1
     33c:	30 40       	sbci	r19, 0x00	; 0
     33e:	40 40       	sbci	r20, 0x00	; 0
     340:	e1 f7       	brne	.-8      	; 0x33a <led_blink_red+0xc>
     342:	00 c0       	rjmp	.+0      	; 0x344 <led_blink_red+0x16>
     344:	00 00       	nop
		_delay_ms(500);
		PORTB=(0<<0);
     346:	15 b8       	out	0x05, r1	; 5
     348:	2f ef       	ldi	r18, 0xFF	; 255
     34a:	39 e6       	ldi	r19, 0x69	; 105
     34c:	48 e1       	ldi	r20, 0x18	; 24
     34e:	21 50       	subi	r18, 0x01	; 1
     350:	30 40       	sbci	r19, 0x00	; 0
     352:	40 40       	sbci	r20, 0x00	; 0
     354:	e1 f7       	brne	.-8      	; 0x34e <led_blink_red+0x20>
     356:	00 c0       	rjmp	.+0      	; 0x358 <led_blink_red+0x2a>
     358:	00 00       	nop
}

void led_blink_red (uint16_t i)
{
	//Blink LED "i" number of times
	for (; i>0; --i)
     35a:	01 97       	sbiw	r24, 0x01	; 1
     35c:	00 97       	sbiw	r24, 0x00	; 0
     35e:	49 f7       	brne	.-46     	; 0x332 <led_blink_red+0x4>
     360:	08 95       	ret

00000362 <led_blink_green>:
}

void led_blink_green (uint16_t i)
{
	//Blink LED "i" number of times
	for (; i>0; --i)
     362:	00 97       	sbiw	r24, 0x00	; 0
     364:	b9 f0       	breq	.+46     	; 0x394 <led_blink_green+0x32>
	{
		PORTB|=(1<<1);
     366:	29 9a       	sbi	0x05, 1	; 5
     368:	2f ef       	ldi	r18, 0xFF	; 255
     36a:	39 e6       	ldi	r19, 0x69	; 105
     36c:	48 e1       	ldi	r20, 0x18	; 24
     36e:	21 50       	subi	r18, 0x01	; 1
     370:	30 40       	sbci	r19, 0x00	; 0
     372:	40 40       	sbci	r20, 0x00	; 0
     374:	e1 f7       	brne	.-8      	; 0x36e <led_blink_green+0xc>
     376:	00 c0       	rjmp	.+0      	; 0x378 <led_blink_green+0x16>
     378:	00 00       	nop
		_delay_ms(500);
		PORTB=(0<<1);
     37a:	15 b8       	out	0x05, r1	; 5
     37c:	2f ef       	ldi	r18, 0xFF	; 255
     37e:	39 e6       	ldi	r19, 0x69	; 105
     380:	48 e1       	ldi	r20, 0x18	; 24
     382:	21 50       	subi	r18, 0x01	; 1
     384:	30 40       	sbci	r19, 0x00	; 0
     386:	40 40       	sbci	r20, 0x00	; 0
     388:	e1 f7       	brne	.-8      	; 0x382 <led_blink_green+0x20>
     38a:	00 c0       	rjmp	.+0      	; 0x38c <led_blink_green+0x2a>
     38c:	00 00       	nop
}

void led_blink_green (uint16_t i)
{
	//Blink LED "i" number of times
	for (; i>0; --i)
     38e:	01 97       	sbiw	r24, 0x01	; 1
     390:	00 97       	sbiw	r24, 0x00	; 0
     392:	49 f7       	brne	.-46     	; 0x366 <led_blink_green+0x4>
     394:	08 95       	ret

00000396 <led_blink_yellow>:
}

void led_blink_yellow (uint16_t i)
{
	//Blink LED "i" number of times
	for (; i>0; --i)
     396:	00 97       	sbiw	r24, 0x00	; 0
     398:	b9 f0       	breq	.+46     	; 0x3c8 <led_blink_yellow+0x32>
	{
		PORTB|=(1<<2);
     39a:	2a 9a       	sbi	0x05, 2	; 5
     39c:	2f ef       	ldi	r18, 0xFF	; 255
     39e:	39 e6       	ldi	r19, 0x69	; 105
     3a0:	48 e1       	ldi	r20, 0x18	; 24
     3a2:	21 50       	subi	r18, 0x01	; 1
     3a4:	30 40       	sbci	r19, 0x00	; 0
     3a6:	40 40       	sbci	r20, 0x00	; 0
     3a8:	e1 f7       	brne	.-8      	; 0x3a2 <led_blink_yellow+0xc>
     3aa:	00 c0       	rjmp	.+0      	; 0x3ac <led_blink_yellow+0x16>
     3ac:	00 00       	nop
		_delay_ms(500);
		PORTB=(0<<2);
     3ae:	15 b8       	out	0x05, r1	; 5
     3b0:	2f ef       	ldi	r18, 0xFF	; 255
     3b2:	39 e6       	ldi	r19, 0x69	; 105
     3b4:	48 e1       	ldi	r20, 0x18	; 24
     3b6:	21 50       	subi	r18, 0x01	; 1
     3b8:	30 40       	sbci	r19, 0x00	; 0
     3ba:	40 40       	sbci	r20, 0x00	; 0
     3bc:	e1 f7       	brne	.-8      	; 0x3b6 <led_blink_yellow+0x20>
     3be:	00 c0       	rjmp	.+0      	; 0x3c0 <led_blink_yellow+0x2a>
     3c0:	00 00       	nop
}

void led_blink_yellow (uint16_t i)
{
	//Blink LED "i" number of times
	for (; i>0; --i)
     3c2:	01 97       	sbiw	r24, 0x01	; 1
     3c4:	00 97       	sbiw	r24, 0x00	; 0
     3c6:	49 f7       	brne	.-46     	; 0x39a <led_blink_yellow+0x4>
     3c8:	08 95       	ret

000003ca <init_acc>:
	}
	for (int i = 0; i < PACKET_SIZE; i++)
	{
		spi_tranceiver(sp.packet[i]);
	}
}
     3ca:	21 e0       	ldi	r18, 0x01	; 1
     3cc:	30 e0       	ldi	r19, 0x00	; 0
     3ce:	47 e5       	ldi	r20, 0x57	; 87
     3d0:	60 e2       	ldi	r22, 0x20	; 32
     3d2:	82 e3       	ldi	r24, 0x32	; 50
     3d4:	83 df       	rcall	.-250    	; 0x2dc <i2c_write_reg>
     3d6:	8f e3       	ldi	r24, 0x3F	; 63
     3d8:	9c e9       	ldi	r25, 0x9C	; 156
     3da:	01 97       	sbiw	r24, 0x01	; 1
     3dc:	f1 f7       	brne	.-4      	; 0x3da <init_acc+0x10>
     3de:	00 c0       	rjmp	.+0      	; 0x3e0 <init_acc+0x16>
     3e0:	00 00       	nop
     3e2:	08 95       	ret

000003e4 <init_gyro>:
     3e4:	21 e0       	ldi	r18, 0x01	; 1
     3e6:	30 e0       	ldi	r19, 0x00	; 0
     3e8:	4f e0       	ldi	r20, 0x0F	; 15
     3ea:	60 e2       	ldi	r22, 0x20	; 32
     3ec:	86 ed       	ldi	r24, 0xD6	; 214
     3ee:	76 df       	rcall	.-276    	; 0x2dc <i2c_write_reg>
     3f0:	8f e3       	ldi	r24, 0x3F	; 63
     3f2:	9c e9       	ldi	r25, 0x9C	; 156
     3f4:	01 97       	sbiw	r24, 0x01	; 1
     3f6:	f1 f7       	brne	.-4      	; 0x3f4 <init_gyro+0x10>
     3f8:	00 c0       	rjmp	.+0      	; 0x3fa <init_gyro+0x16>
     3fa:	00 00       	nop
     3fc:	08 95       	ret

000003fe <format_acc>:
     3fe:	26 2f       	mov	r18, r22
     400:	30 e0       	ldi	r19, 0x00	; 0
     402:	32 2f       	mov	r19, r18
     404:	22 27       	eor	r18, r18
     406:	28 2b       	or	r18, r24
     408:	b9 01       	movw	r22, r18
     40a:	75 95       	asr	r23
     40c:	67 95       	ror	r22
     40e:	75 95       	asr	r23
     410:	67 95       	ror	r22
     412:	75 95       	asr	r23
     414:	67 95       	ror	r22
     416:	75 95       	asr	r23
     418:	67 95       	ror	r22
     41a:	88 27       	eor	r24, r24
     41c:	77 fd       	sbrc	r23, 7
     41e:	80 95       	com	r24
     420:	98 2f       	mov	r25, r24
     422:	d5 d6       	rcall	.+3498   	; 0x11ce <__floatsisf>
     424:	21 ed       	ldi	r18, 0xD1	; 209
     426:	32 e2       	ldi	r19, 0x22	; 34
     428:	4d e1       	ldi	r20, 0x1D	; 29
     42a:	51 e4       	ldi	r21, 0x41	; 65
     42c:	be d7       	rcall	.+3964   	; 0x13aa <__mulsf3>
     42e:	2f e6       	ldi	r18, 0x6F	; 111
     430:	32 e1       	ldi	r19, 0x12	; 18
     432:	43 e8       	ldi	r20, 0x83	; 131
     434:	5a e3       	ldi	r21, 0x3A	; 58
     436:	b9 c7       	rjmp	.+3954   	; 0x13aa <__mulsf3>
     438:	08 95       	ret

0000043a <get_uncalibrated_acc>:
     43a:	8f 92       	push	r8
     43c:	9f 92       	push	r9
     43e:	af 92       	push	r10
     440:	bf 92       	push	r11
     442:	cf 92       	push	r12
     444:	df 92       	push	r13
     446:	ef 92       	push	r14
     448:	ff 92       	push	r15
     44a:	1f 93       	push	r17
     44c:	cf 93       	push	r28
     44e:	df 93       	push	r29
     450:	ec 01       	movw	r28, r24
     452:	41 e0       	ldi	r20, 0x01	; 1
     454:	50 e0       	ldi	r21, 0x00	; 0
     456:	68 e2       	ldi	r22, 0x28	; 40
     458:	82 e3       	ldi	r24, 0x32	; 50
     45a:	53 df       	rcall	.-346    	; 0x302 <i2c_read_reg>
     45c:	18 2f       	mov	r17, r24
     45e:	8f e9       	ldi	r24, 0x9F	; 159
     460:	9f e0       	ldi	r25, 0x0F	; 15
     462:	01 97       	sbiw	r24, 0x01	; 1
     464:	f1 f7       	brne	.-4      	; 0x462 <get_uncalibrated_acc+0x28>
     466:	00 c0       	rjmp	.+0      	; 0x468 <get_uncalibrated_acc+0x2e>
     468:	00 00       	nop
     46a:	41 e0       	ldi	r20, 0x01	; 1
     46c:	50 e0       	ldi	r21, 0x00	; 0
     46e:	69 e2       	ldi	r22, 0x29	; 41
     470:	82 e3       	ldi	r24, 0x32	; 50
     472:	47 df       	rcall	.-370    	; 0x302 <i2c_read_reg>
     474:	68 2f       	mov	r22, r24
     476:	81 2f       	mov	r24, r17
     478:	c2 df       	rcall	.-124    	; 0x3fe <format_acc>
     47a:	4b 01       	movw	r8, r22
     47c:	5c 01       	movw	r10, r24
     47e:	41 e0       	ldi	r20, 0x01	; 1
     480:	50 e0       	ldi	r21, 0x00	; 0
     482:	6a e2       	ldi	r22, 0x2A	; 42
     484:	82 e3       	ldi	r24, 0x32	; 50
     486:	3d df       	rcall	.-390    	; 0x302 <i2c_read_reg>
     488:	18 2f       	mov	r17, r24
     48a:	8f e9       	ldi	r24, 0x9F	; 159
     48c:	9f e0       	ldi	r25, 0x0F	; 15
     48e:	01 97       	sbiw	r24, 0x01	; 1
     490:	f1 f7       	brne	.-4      	; 0x48e <get_uncalibrated_acc+0x54>
     492:	00 c0       	rjmp	.+0      	; 0x494 <get_uncalibrated_acc+0x5a>
     494:	00 00       	nop
     496:	41 e0       	ldi	r20, 0x01	; 1
     498:	50 e0       	ldi	r21, 0x00	; 0
     49a:	6b e2       	ldi	r22, 0x2B	; 43
     49c:	82 e3       	ldi	r24, 0x32	; 50
     49e:	31 df       	rcall	.-414    	; 0x302 <i2c_read_reg>
     4a0:	68 2f       	mov	r22, r24
     4a2:	81 2f       	mov	r24, r17
     4a4:	ac df       	rcall	.-168    	; 0x3fe <format_acc>
     4a6:	6b 01       	movw	r12, r22
     4a8:	7c 01       	movw	r14, r24
     4aa:	41 e0       	ldi	r20, 0x01	; 1
     4ac:	50 e0       	ldi	r21, 0x00	; 0
     4ae:	6c e2       	ldi	r22, 0x2C	; 44
     4b0:	82 e3       	ldi	r24, 0x32	; 50
     4b2:	27 df       	rcall	.-434    	; 0x302 <i2c_read_reg>
     4b4:	18 2f       	mov	r17, r24
     4b6:	8f e9       	ldi	r24, 0x9F	; 159
     4b8:	9f e0       	ldi	r25, 0x0F	; 15
     4ba:	01 97       	sbiw	r24, 0x01	; 1
     4bc:	f1 f7       	brne	.-4      	; 0x4ba <get_uncalibrated_acc+0x80>
     4be:	00 c0       	rjmp	.+0      	; 0x4c0 <get_uncalibrated_acc+0x86>
     4c0:	00 00       	nop
     4c2:	41 e0       	ldi	r20, 0x01	; 1
     4c4:	50 e0       	ldi	r21, 0x00	; 0
     4c6:	6d e2       	ldi	r22, 0x2D	; 45
     4c8:	82 e3       	ldi	r24, 0x32	; 50
     4ca:	1b df       	rcall	.-458    	; 0x302 <i2c_read_reg>
     4cc:	68 2f       	mov	r22, r24
     4ce:	81 2f       	mov	r24, r17
     4d0:	96 df       	rcall	.-212    	; 0x3fe <format_acc>
     4d2:	88 82       	st	Y, r8
     4d4:	99 82       	std	Y+1, r9	; 0x01
     4d6:	aa 82       	std	Y+2, r10	; 0x02
     4d8:	bb 82       	std	Y+3, r11	; 0x03
     4da:	cc 82       	std	Y+4, r12	; 0x04
     4dc:	dd 82       	std	Y+5, r13	; 0x05
     4de:	ee 82       	std	Y+6, r14	; 0x06
     4e0:	ff 82       	std	Y+7, r15	; 0x07
     4e2:	68 87       	std	Y+8, r22	; 0x08
     4e4:	79 87       	std	Y+9, r23	; 0x09
     4e6:	8a 87       	std	Y+10, r24	; 0x0a
     4e8:	9b 87       	std	Y+11, r25	; 0x0b
     4ea:	df 91       	pop	r29
     4ec:	cf 91       	pop	r28
     4ee:	1f 91       	pop	r17
     4f0:	ff 90       	pop	r15
     4f2:	ef 90       	pop	r14
     4f4:	df 90       	pop	r13
     4f6:	cf 90       	pop	r12
     4f8:	bf 90       	pop	r11
     4fa:	af 90       	pop	r10
     4fc:	9f 90       	pop	r9
     4fe:	8f 90       	pop	r8
     500:	08 95       	ret

00000502 <calibrate_acc>:
     502:	4f 92       	push	r4
     504:	5f 92       	push	r5
     506:	6f 92       	push	r6
     508:	7f 92       	push	r7
     50a:	8f 92       	push	r8
     50c:	9f 92       	push	r9
     50e:	af 92       	push	r10
     510:	bf 92       	push	r11
     512:	cf 92       	push	r12
     514:	df 92       	push	r13
     516:	ef 92       	push	r14
     518:	ff 92       	push	r15
     51a:	0f 93       	push	r16
     51c:	1f 93       	push	r17
     51e:	cf 93       	push	r28
     520:	df 93       	push	r29
     522:	81 e0       	ldi	r24, 0x01	; 1
     524:	23 de       	rcall	.-954    	; 0x16c <create_empty_sensor>
     526:	ec 01       	movw	r28, r24
     528:	04 e6       	ldi	r16, 0x64	; 100
     52a:	10 e0       	ldi	r17, 0x00	; 0
     52c:	c1 2c       	mov	r12, r1
     52e:	d1 2c       	mov	r13, r1
     530:	76 01       	movw	r14, r12
     532:	46 01       	movw	r8, r12
     534:	57 01       	movw	r10, r14
     536:	26 01       	movw	r4, r12
     538:	37 01       	movw	r6, r14
     53a:	ce 01       	movw	r24, r28
     53c:	7e df       	rcall	.-260    	; 0x43a <get_uncalibrated_acc>
     53e:	28 81       	ld	r18, Y
     540:	39 81       	ldd	r19, Y+1	; 0x01
     542:	4a 81       	ldd	r20, Y+2	; 0x02
     544:	5b 81       	ldd	r21, Y+3	; 0x03
     546:	c3 01       	movw	r24, r6
     548:	b2 01       	movw	r22, r4
     54a:	6f d5       	rcall	.+2782   	; 0x102a <__addsf3>
     54c:	2b 01       	movw	r4, r22
     54e:	3c 01       	movw	r6, r24
     550:	2c 81       	ldd	r18, Y+4	; 0x04
     552:	3d 81       	ldd	r19, Y+5	; 0x05
     554:	4e 81       	ldd	r20, Y+6	; 0x06
     556:	5f 81       	ldd	r21, Y+7	; 0x07
     558:	c5 01       	movw	r24, r10
     55a:	b4 01       	movw	r22, r8
     55c:	66 d5       	rcall	.+2764   	; 0x102a <__addsf3>
     55e:	4b 01       	movw	r8, r22
     560:	5c 01       	movw	r10, r24
     562:	28 85       	ldd	r18, Y+8	; 0x08
     564:	39 85       	ldd	r19, Y+9	; 0x09
     566:	4a 85       	ldd	r20, Y+10	; 0x0a
     568:	5b 85       	ldd	r21, Y+11	; 0x0b
     56a:	c7 01       	movw	r24, r14
     56c:	b6 01       	movw	r22, r12
     56e:	5d d5       	rcall	.+2746   	; 0x102a <__addsf3>
     570:	6b 01       	movw	r12, r22
     572:	7c 01       	movw	r14, r24
     574:	01 50       	subi	r16, 0x01	; 1
     576:	11 09       	sbc	r17, r1
     578:	01 15       	cp	r16, r1
     57a:	11 05       	cpc	r17, r1
     57c:	f1 f6       	brne	.-68     	; 0x53a <calibrate_acc+0x38>
     57e:	20 e0       	ldi	r18, 0x00	; 0
     580:	30 e0       	ldi	r19, 0x00	; 0
     582:	48 ec       	ldi	r20, 0xC8	; 200
     584:	52 e4       	ldi	r21, 0x42	; 66
     586:	c3 01       	movw	r24, r6
     588:	b2 01       	movw	r22, r4
     58a:	b7 d5       	rcall	.+2926   	; 0x10fa <__divsf3>
     58c:	60 93 1c 01 	sts	0x011C, r22
     590:	70 93 1d 01 	sts	0x011D, r23
     594:	80 93 1e 01 	sts	0x011E, r24
     598:	90 93 1f 01 	sts	0x011F, r25
     59c:	20 e0       	ldi	r18, 0x00	; 0
     59e:	30 e0       	ldi	r19, 0x00	; 0
     5a0:	48 ec       	ldi	r20, 0xC8	; 200
     5a2:	52 e4       	ldi	r21, 0x42	; 66
     5a4:	c5 01       	movw	r24, r10
     5a6:	b4 01       	movw	r22, r8
     5a8:	a8 d5       	rcall	.+2896   	; 0x10fa <__divsf3>
     5aa:	60 93 18 01 	sts	0x0118, r22
     5ae:	70 93 19 01 	sts	0x0119, r23
     5b2:	80 93 1a 01 	sts	0x011A, r24
     5b6:	90 93 1b 01 	sts	0x011B, r25
     5ba:	20 e0       	ldi	r18, 0x00	; 0
     5bc:	30 e0       	ldi	r19, 0x00	; 0
     5be:	48 ec       	ldi	r20, 0xC8	; 200
     5c0:	52 e4       	ldi	r21, 0x42	; 66
     5c2:	c7 01       	movw	r24, r14
     5c4:	b6 01       	movw	r22, r12
     5c6:	99 d5       	rcall	.+2866   	; 0x10fa <__divsf3>
     5c8:	60 93 14 01 	sts	0x0114, r22
     5cc:	70 93 15 01 	sts	0x0115, r23
     5d0:	80 93 16 01 	sts	0x0116, r24
     5d4:	90 93 17 01 	sts	0x0117, r25
     5d8:	ce 01       	movw	r24, r28
     5da:	0e 94 0d 0b 	call	0x161a	; 0x161a <free>
     5de:	8f e3       	ldi	r24, 0x3F	; 63
     5e0:	9c e9       	ldi	r25, 0x9C	; 156
     5e2:	01 97       	sbiw	r24, 0x01	; 1
     5e4:	f1 f7       	brne	.-4      	; 0x5e2 <calibrate_acc+0xe0>
     5e6:	00 c0       	rjmp	.+0      	; 0x5e8 <calibrate_acc+0xe6>
     5e8:	00 00       	nop
     5ea:	df 91       	pop	r29
     5ec:	cf 91       	pop	r28
     5ee:	1f 91       	pop	r17
     5f0:	0f 91       	pop	r16
     5f2:	ff 90       	pop	r15
     5f4:	ef 90       	pop	r14
     5f6:	df 90       	pop	r13
     5f8:	cf 90       	pop	r12
     5fa:	bf 90       	pop	r11
     5fc:	af 90       	pop	r10
     5fe:	9f 90       	pop	r9
     600:	8f 90       	pop	r8
     602:	7f 90       	pop	r7
     604:	6f 90       	pop	r6
     606:	5f 90       	pop	r5
     608:	4f 90       	pop	r4
     60a:	08 95       	ret

0000060c <get_acc>:
     60c:	4f 92       	push	r4
     60e:	5f 92       	push	r5
     610:	6f 92       	push	r6
     612:	7f 92       	push	r7
     614:	8f 92       	push	r8
     616:	9f 92       	push	r9
     618:	af 92       	push	r10
     61a:	bf 92       	push	r11
     61c:	cf 92       	push	r12
     61e:	df 92       	push	r13
     620:	ef 92       	push	r14
     622:	ff 92       	push	r15
     624:	cf 93       	push	r28
     626:	df 93       	push	r29
     628:	ec 01       	movw	r28, r24
     62a:	41 e0       	ldi	r20, 0x01	; 1
     62c:	50 e0       	ldi	r21, 0x00	; 0
     62e:	68 e2       	ldi	r22, 0x28	; 40
     630:	82 e3       	ldi	r24, 0x32	; 50
     632:	67 de       	rcall	.-818    	; 0x302 <i2c_read_reg>
     634:	f8 2e       	mov	r15, r24
     636:	8f e9       	ldi	r24, 0x9F	; 159
     638:	9f e0       	ldi	r25, 0x0F	; 15
     63a:	01 97       	sbiw	r24, 0x01	; 1
     63c:	f1 f7       	brne	.-4      	; 0x63a <get_acc+0x2e>
     63e:	00 c0       	rjmp	.+0      	; 0x640 <get_acc+0x34>
     640:	00 00       	nop
     642:	41 e0       	ldi	r20, 0x01	; 1
     644:	50 e0       	ldi	r21, 0x00	; 0
     646:	69 e2       	ldi	r22, 0x29	; 41
     648:	82 e3       	ldi	r24, 0x32	; 50
     64a:	5b de       	rcall	.-842    	; 0x302 <i2c_read_reg>
     64c:	68 2f       	mov	r22, r24
     64e:	8f 2d       	mov	r24, r15
     650:	d6 de       	rcall	.-596    	; 0x3fe <format_acc>
     652:	2b 01       	movw	r4, r22
     654:	3c 01       	movw	r6, r24
     656:	41 e0       	ldi	r20, 0x01	; 1
     658:	50 e0       	ldi	r21, 0x00	; 0
     65a:	6a e2       	ldi	r22, 0x2A	; 42
     65c:	82 e3       	ldi	r24, 0x32	; 50
     65e:	51 de       	rcall	.-862    	; 0x302 <i2c_read_reg>
     660:	f8 2e       	mov	r15, r24
     662:	8f e9       	ldi	r24, 0x9F	; 159
     664:	9f e0       	ldi	r25, 0x0F	; 15
     666:	01 97       	sbiw	r24, 0x01	; 1
     668:	f1 f7       	brne	.-4      	; 0x666 <get_acc+0x5a>
     66a:	00 c0       	rjmp	.+0      	; 0x66c <get_acc+0x60>
     66c:	00 00       	nop
     66e:	41 e0       	ldi	r20, 0x01	; 1
     670:	50 e0       	ldi	r21, 0x00	; 0
     672:	6b e2       	ldi	r22, 0x2B	; 43
     674:	82 e3       	ldi	r24, 0x32	; 50
     676:	45 de       	rcall	.-886    	; 0x302 <i2c_read_reg>
     678:	68 2f       	mov	r22, r24
     67a:	8f 2d       	mov	r24, r15
     67c:	c0 de       	rcall	.-640    	; 0x3fe <format_acc>
     67e:	4b 01       	movw	r8, r22
     680:	5c 01       	movw	r10, r24
     682:	41 e0       	ldi	r20, 0x01	; 1
     684:	50 e0       	ldi	r21, 0x00	; 0
     686:	6c e2       	ldi	r22, 0x2C	; 44
     688:	82 e3       	ldi	r24, 0x32	; 50
     68a:	3b de       	rcall	.-906    	; 0x302 <i2c_read_reg>
     68c:	f8 2e       	mov	r15, r24
     68e:	8f e9       	ldi	r24, 0x9F	; 159
     690:	9f e0       	ldi	r25, 0x0F	; 15
     692:	01 97       	sbiw	r24, 0x01	; 1
     694:	f1 f7       	brne	.-4      	; 0x692 <get_acc+0x86>
     696:	00 c0       	rjmp	.+0      	; 0x698 <get_acc+0x8c>
     698:	00 00       	nop
     69a:	41 e0       	ldi	r20, 0x01	; 1
     69c:	50 e0       	ldi	r21, 0x00	; 0
     69e:	6d e2       	ldi	r22, 0x2D	; 45
     6a0:	82 e3       	ldi	r24, 0x32	; 50
     6a2:	2f de       	rcall	.-930    	; 0x302 <i2c_read_reg>
     6a4:	68 2f       	mov	r22, r24
     6a6:	8f 2d       	mov	r24, r15
     6a8:	aa de       	rcall	.-684    	; 0x3fe <format_acc>
     6aa:	6b 01       	movw	r12, r22
     6ac:	7c 01       	movw	r14, r24
     6ae:	20 91 1c 01 	lds	r18, 0x011C
     6b2:	30 91 1d 01 	lds	r19, 0x011D
     6b6:	40 91 1e 01 	lds	r20, 0x011E
     6ba:	50 91 1f 01 	lds	r21, 0x011F
     6be:	c3 01       	movw	r24, r6
     6c0:	b2 01       	movw	r22, r4
     6c2:	b2 d4       	rcall	.+2404   	; 0x1028 <__subsf3>
     6c4:	dc 01       	movw	r26, r24
     6c6:	cb 01       	movw	r24, r22
     6c8:	b0 58       	subi	r27, 0x80	; 128
     6ca:	88 83       	st	Y, r24
     6cc:	99 83       	std	Y+1, r25	; 0x01
     6ce:	aa 83       	std	Y+2, r26	; 0x02
     6d0:	bb 83       	std	Y+3, r27	; 0x03
     6d2:	20 91 18 01 	lds	r18, 0x0118
     6d6:	30 91 19 01 	lds	r19, 0x0119
     6da:	40 91 1a 01 	lds	r20, 0x011A
     6de:	50 91 1b 01 	lds	r21, 0x011B
     6e2:	c5 01       	movw	r24, r10
     6e4:	b4 01       	movw	r22, r8
     6e6:	a0 d4       	rcall	.+2368   	; 0x1028 <__subsf3>
     6e8:	dc 01       	movw	r26, r24
     6ea:	cb 01       	movw	r24, r22
     6ec:	b0 58       	subi	r27, 0x80	; 128
     6ee:	8c 83       	std	Y+4, r24	; 0x04
     6f0:	9d 83       	std	Y+5, r25	; 0x05
     6f2:	ae 83       	std	Y+6, r26	; 0x06
     6f4:	bf 83       	std	Y+7, r27	; 0x07
     6f6:	20 91 14 01 	lds	r18, 0x0114
     6fa:	30 91 15 01 	lds	r19, 0x0115
     6fe:	40 91 16 01 	lds	r20, 0x0116
     702:	50 91 17 01 	lds	r21, 0x0117
     706:	c7 01       	movw	r24, r14
     708:	b6 01       	movw	r22, r12
     70a:	8e d4       	rcall	.+2332   	; 0x1028 <__subsf3>
     70c:	dc 01       	movw	r26, r24
     70e:	cb 01       	movw	r24, r22
     710:	b0 58       	subi	r27, 0x80	; 128
     712:	88 87       	std	Y+8, r24	; 0x08
     714:	99 87       	std	Y+9, r25	; 0x09
     716:	aa 87       	std	Y+10, r26	; 0x0a
     718:	bb 87       	std	Y+11, r27	; 0x0b
     71a:	df 91       	pop	r29
     71c:	cf 91       	pop	r28
     71e:	ff 90       	pop	r15
     720:	ef 90       	pop	r14
     722:	df 90       	pop	r13
     724:	cf 90       	pop	r12
     726:	bf 90       	pop	r11
     728:	af 90       	pop	r10
     72a:	9f 90       	pop	r9
     72c:	8f 90       	pop	r8
     72e:	7f 90       	pop	r7
     730:	6f 90       	pop	r6
     732:	5f 90       	pop	r5
     734:	4f 90       	pop	r4
     736:	08 95       	ret

00000738 <get_uncalibrated_gyro>:
     738:	cf 92       	push	r12
     73a:	df 92       	push	r13
     73c:	ef 92       	push	r14
     73e:	ff 92       	push	r15
     740:	0f 93       	push	r16
     742:	1f 93       	push	r17
     744:	cf 93       	push	r28
     746:	df 93       	push	r29
     748:	ec 01       	movw	r28, r24
     74a:	41 e0       	ldi	r20, 0x01	; 1
     74c:	50 e0       	ldi	r21, 0x00	; 0
     74e:	68 e2       	ldi	r22, 0x28	; 40
     750:	86 ed       	ldi	r24, 0xD6	; 214
     752:	d7 dd       	rcall	.-1106   	; 0x302 <i2c_read_reg>
     754:	d8 2e       	mov	r13, r24
     756:	8f e9       	ldi	r24, 0x9F	; 159
     758:	9f e0       	ldi	r25, 0x0F	; 15
     75a:	01 97       	sbiw	r24, 0x01	; 1
     75c:	f1 f7       	brne	.-4      	; 0x75a <get_uncalibrated_gyro+0x22>
     75e:	00 c0       	rjmp	.+0      	; 0x760 <get_uncalibrated_gyro+0x28>
     760:	00 00       	nop
     762:	41 e0       	ldi	r20, 0x01	; 1
     764:	50 e0       	ldi	r21, 0x00	; 0
     766:	69 e2       	ldi	r22, 0x29	; 41
     768:	86 ed       	ldi	r24, 0xD6	; 214
     76a:	cb dd       	rcall	.-1130   	; 0x302 <i2c_read_reg>
     76c:	c8 2e       	mov	r12, r24
     76e:	41 e0       	ldi	r20, 0x01	; 1
     770:	50 e0       	ldi	r21, 0x00	; 0
     772:	6a e2       	ldi	r22, 0x2A	; 42
     774:	86 ed       	ldi	r24, 0xD6	; 214
     776:	c5 dd       	rcall	.-1142   	; 0x302 <i2c_read_reg>
     778:	f8 2e       	mov	r15, r24
     77a:	8f e9       	ldi	r24, 0x9F	; 159
     77c:	9f e0       	ldi	r25, 0x0F	; 15
     77e:	01 97       	sbiw	r24, 0x01	; 1
     780:	f1 f7       	brne	.-4      	; 0x77e <get_uncalibrated_gyro+0x46>
     782:	00 c0       	rjmp	.+0      	; 0x784 <get_uncalibrated_gyro+0x4c>
     784:	00 00       	nop
     786:	41 e0       	ldi	r20, 0x01	; 1
     788:	50 e0       	ldi	r21, 0x00	; 0
     78a:	6b e2       	ldi	r22, 0x2B	; 43
     78c:	86 ed       	ldi	r24, 0xD6	; 214
     78e:	b9 dd       	rcall	.-1166   	; 0x302 <i2c_read_reg>
     790:	e8 2e       	mov	r14, r24
     792:	41 e0       	ldi	r20, 0x01	; 1
     794:	50 e0       	ldi	r21, 0x00	; 0
     796:	6c e2       	ldi	r22, 0x2C	; 44
     798:	86 ed       	ldi	r24, 0xD6	; 214
     79a:	b3 dd       	rcall	.-1178   	; 0x302 <i2c_read_reg>
     79c:	18 2f       	mov	r17, r24
     79e:	8f e9       	ldi	r24, 0x9F	; 159
     7a0:	9f e0       	ldi	r25, 0x0F	; 15
     7a2:	01 97       	sbiw	r24, 0x01	; 1
     7a4:	f1 f7       	brne	.-4      	; 0x7a2 <get_uncalibrated_gyro+0x6a>
     7a6:	00 c0       	rjmp	.+0      	; 0x7a8 <get_uncalibrated_gyro+0x70>
     7a8:	00 00       	nop
     7aa:	41 e0       	ldi	r20, 0x01	; 1
     7ac:	50 e0       	ldi	r21, 0x00	; 0
     7ae:	6d e2       	ldi	r22, 0x2D	; 45
     7b0:	86 ed       	ldi	r24, 0xD6	; 214
     7b2:	a7 dd       	rcall	.-1202   	; 0x302 <i2c_read_reg>
     7b4:	08 2f       	mov	r16, r24
     7b6:	6c 2d       	mov	r22, r12
     7b8:	70 e0       	ldi	r23, 0x00	; 0
     7ba:	76 2f       	mov	r23, r22
     7bc:	66 27       	eor	r22, r22
     7be:	6d 0d       	add	r22, r13
     7c0:	71 1d       	adc	r23, r1
     7c2:	88 27       	eor	r24, r24
     7c4:	77 fd       	sbrc	r23, 7
     7c6:	80 95       	com	r24
     7c8:	98 2f       	mov	r25, r24
     7ca:	01 d5       	rcall	.+2562   	; 0x11ce <__floatsisf>
     7cc:	29 e2       	ldi	r18, 0x29	; 41
     7ce:	3c e5       	ldi	r19, 0x5C	; 92
     7d0:	4f e0       	ldi	r20, 0x0F	; 15
     7d2:	5c e3       	ldi	r21, 0x3C	; 60
     7d4:	ea d5       	rcall	.+3028   	; 0x13aa <__mulsf3>
     7d6:	6c 87       	std	Y+12, r22	; 0x0c
     7d8:	7d 87       	std	Y+13, r23	; 0x0d
     7da:	8e 87       	std	Y+14, r24	; 0x0e
     7dc:	9f 87       	std	Y+15, r25	; 0x0f
     7de:	6e 2d       	mov	r22, r14
     7e0:	70 e0       	ldi	r23, 0x00	; 0
     7e2:	76 2f       	mov	r23, r22
     7e4:	66 27       	eor	r22, r22
     7e6:	6f 0d       	add	r22, r15
     7e8:	71 1d       	adc	r23, r1
     7ea:	88 27       	eor	r24, r24
     7ec:	77 fd       	sbrc	r23, 7
     7ee:	80 95       	com	r24
     7f0:	98 2f       	mov	r25, r24
     7f2:	ed d4       	rcall	.+2522   	; 0x11ce <__floatsisf>
     7f4:	29 e2       	ldi	r18, 0x29	; 41
     7f6:	3c e5       	ldi	r19, 0x5C	; 92
     7f8:	4f e0       	ldi	r20, 0x0F	; 15
     7fa:	5c e3       	ldi	r21, 0x3C	; 60
     7fc:	d6 d5       	rcall	.+2988   	; 0x13aa <__mulsf3>
     7fe:	68 8b       	std	Y+16, r22	; 0x10
     800:	79 8b       	std	Y+17, r23	; 0x11
     802:	8a 8b       	std	Y+18, r24	; 0x12
     804:	9b 8b       	std	Y+19, r25	; 0x13
     806:	60 2f       	mov	r22, r16
     808:	70 e0       	ldi	r23, 0x00	; 0
     80a:	76 2f       	mov	r23, r22
     80c:	66 27       	eor	r22, r22
     80e:	61 0f       	add	r22, r17
     810:	71 1d       	adc	r23, r1
     812:	88 27       	eor	r24, r24
     814:	77 fd       	sbrc	r23, 7
     816:	80 95       	com	r24
     818:	98 2f       	mov	r25, r24
     81a:	d9 d4       	rcall	.+2482   	; 0x11ce <__floatsisf>
     81c:	29 e2       	ldi	r18, 0x29	; 41
     81e:	3c e5       	ldi	r19, 0x5C	; 92
     820:	4f e0       	ldi	r20, 0x0F	; 15
     822:	5c e3       	ldi	r21, 0x3C	; 60
     824:	c2 d5       	rcall	.+2948   	; 0x13aa <__mulsf3>
     826:	6c 8b       	std	Y+20, r22	; 0x14
     828:	7d 8b       	std	Y+21, r23	; 0x15
     82a:	8e 8b       	std	Y+22, r24	; 0x16
     82c:	9f 8b       	std	Y+23, r25	; 0x17
     82e:	df 91       	pop	r29
     830:	cf 91       	pop	r28
     832:	1f 91       	pop	r17
     834:	0f 91       	pop	r16
     836:	ff 90       	pop	r15
     838:	ef 90       	pop	r14
     83a:	df 90       	pop	r13
     83c:	cf 90       	pop	r12
     83e:	08 95       	ret

00000840 <calibrate_gyro>:
     840:	4f 92       	push	r4
     842:	5f 92       	push	r5
     844:	6f 92       	push	r6
     846:	7f 92       	push	r7
     848:	8f 92       	push	r8
     84a:	9f 92       	push	r9
     84c:	af 92       	push	r10
     84e:	bf 92       	push	r11
     850:	cf 92       	push	r12
     852:	df 92       	push	r13
     854:	ef 92       	push	r14
     856:	ff 92       	push	r15
     858:	0f 93       	push	r16
     85a:	1f 93       	push	r17
     85c:	cf 93       	push	r28
     85e:	df 93       	push	r29
     860:	81 e0       	ldi	r24, 0x01	; 1
     862:	84 dc       	rcall	.-1784   	; 0x16c <create_empty_sensor>
     864:	ec 01       	movw	r28, r24
     866:	04 e6       	ldi	r16, 0x64	; 100
     868:	10 e0       	ldi	r17, 0x00	; 0
     86a:	c1 2c       	mov	r12, r1
     86c:	d1 2c       	mov	r13, r1
     86e:	76 01       	movw	r14, r12
     870:	46 01       	movw	r8, r12
     872:	57 01       	movw	r10, r14
     874:	26 01       	movw	r4, r12
     876:	37 01       	movw	r6, r14
     878:	ce 01       	movw	r24, r28
     87a:	5e df       	rcall	.-324    	; 0x738 <get_uncalibrated_gyro>
     87c:	2c 85       	ldd	r18, Y+12	; 0x0c
     87e:	3d 85       	ldd	r19, Y+13	; 0x0d
     880:	4e 85       	ldd	r20, Y+14	; 0x0e
     882:	5f 85       	ldd	r21, Y+15	; 0x0f
     884:	c3 01       	movw	r24, r6
     886:	b2 01       	movw	r22, r4
     888:	d0 d3       	rcall	.+1952   	; 0x102a <__addsf3>
     88a:	2b 01       	movw	r4, r22
     88c:	3c 01       	movw	r6, r24
     88e:	28 89       	ldd	r18, Y+16	; 0x10
     890:	39 89       	ldd	r19, Y+17	; 0x11
     892:	4a 89       	ldd	r20, Y+18	; 0x12
     894:	5b 89       	ldd	r21, Y+19	; 0x13
     896:	c5 01       	movw	r24, r10
     898:	b4 01       	movw	r22, r8
     89a:	c7 d3       	rcall	.+1934   	; 0x102a <__addsf3>
     89c:	4b 01       	movw	r8, r22
     89e:	5c 01       	movw	r10, r24
     8a0:	2c 89       	ldd	r18, Y+20	; 0x14
     8a2:	3d 89       	ldd	r19, Y+21	; 0x15
     8a4:	4e 89       	ldd	r20, Y+22	; 0x16
     8a6:	5f 89       	ldd	r21, Y+23	; 0x17
     8a8:	c7 01       	movw	r24, r14
     8aa:	b6 01       	movw	r22, r12
     8ac:	be d3       	rcall	.+1916   	; 0x102a <__addsf3>
     8ae:	6b 01       	movw	r12, r22
     8b0:	7c 01       	movw	r14, r24
     8b2:	01 50       	subi	r16, 0x01	; 1
     8b4:	11 09       	sbc	r17, r1
     8b6:	01 15       	cp	r16, r1
     8b8:	11 05       	cpc	r17, r1
     8ba:	f1 f6       	brne	.-68     	; 0x878 <calibrate_gyro+0x38>
     8bc:	20 e0       	ldi	r18, 0x00	; 0
     8be:	30 e0       	ldi	r19, 0x00	; 0
     8c0:	48 ec       	ldi	r20, 0xC8	; 200
     8c2:	52 e4       	ldi	r21, 0x42	; 66
     8c4:	c3 01       	movw	r24, r6
     8c6:	b2 01       	movw	r22, r4
     8c8:	18 d4       	rcall	.+2096   	; 0x10fa <__divsf3>
     8ca:	60 93 28 01 	sts	0x0128, r22
     8ce:	70 93 29 01 	sts	0x0129, r23
     8d2:	80 93 2a 01 	sts	0x012A, r24
     8d6:	90 93 2b 01 	sts	0x012B, r25
     8da:	20 e0       	ldi	r18, 0x00	; 0
     8dc:	30 e0       	ldi	r19, 0x00	; 0
     8de:	48 ec       	ldi	r20, 0xC8	; 200
     8e0:	52 e4       	ldi	r21, 0x42	; 66
     8e2:	c5 01       	movw	r24, r10
     8e4:	b4 01       	movw	r22, r8
     8e6:	09 d4       	rcall	.+2066   	; 0x10fa <__divsf3>
     8e8:	60 93 24 01 	sts	0x0124, r22
     8ec:	70 93 25 01 	sts	0x0125, r23
     8f0:	80 93 26 01 	sts	0x0126, r24
     8f4:	90 93 27 01 	sts	0x0127, r25
     8f8:	20 e0       	ldi	r18, 0x00	; 0
     8fa:	30 e0       	ldi	r19, 0x00	; 0
     8fc:	48 ec       	ldi	r20, 0xC8	; 200
     8fe:	52 e4       	ldi	r21, 0x42	; 66
     900:	c7 01       	movw	r24, r14
     902:	b6 01       	movw	r22, r12
     904:	fa d3       	rcall	.+2036   	; 0x10fa <__divsf3>
     906:	60 93 20 01 	sts	0x0120, r22
     90a:	70 93 21 01 	sts	0x0121, r23
     90e:	80 93 22 01 	sts	0x0122, r24
     912:	90 93 23 01 	sts	0x0123, r25
     916:	ce 01       	movw	r24, r28
     918:	80 d6       	rcall	.+3328   	; 0x161a <free>
     91a:	8f e3       	ldi	r24, 0x3F	; 63
     91c:	9c e9       	ldi	r25, 0x9C	; 156
     91e:	01 97       	sbiw	r24, 0x01	; 1
     920:	f1 f7       	brne	.-4      	; 0x91e <calibrate_gyro+0xde>
     922:	00 c0       	rjmp	.+0      	; 0x924 <calibrate_gyro+0xe4>
     924:	00 00       	nop
     926:	df 91       	pop	r29
     928:	cf 91       	pop	r28
     92a:	1f 91       	pop	r17
     92c:	0f 91       	pop	r16
     92e:	ff 90       	pop	r15
     930:	ef 90       	pop	r14
     932:	df 90       	pop	r13
     934:	cf 90       	pop	r12
     936:	bf 90       	pop	r11
     938:	af 90       	pop	r10
     93a:	9f 90       	pop	r9
     93c:	8f 90       	pop	r8
     93e:	7f 90       	pop	r7
     940:	6f 90       	pop	r6
     942:	5f 90       	pop	r5
     944:	4f 90       	pop	r4
     946:	08 95       	ret

00000948 <init_sensors>:
     948:	40 dd       	rcall	.-1408   	; 0x3ca <init_acc>
     94a:	4c dd       	rcall	.-1384   	; 0x3e4 <init_gyro>
     94c:	79 df       	rcall	.-270    	; 0x840 <calibrate_gyro>
     94e:	d9 cd       	rjmp	.-1102   	; 0x502 <calibrate_acc>
     950:	08 95       	ret

00000952 <initialize_all>:
     952:	81 e0       	ldi	r24, 0x01	; 1
     954:	84 b9       	out	0x04, r24	; 4
     956:	15 b8       	out	0x05, r1	; 5
     958:	2e dc       	rcall	.-1956   	; 0x1b6 <i2c_init>
     95a:	fe d1       	rcall	.+1020   	; 0xd58 <spi_init>
     95c:	78 94       	sei
     95e:	f4 df       	rcall	.-24     	; 0x948 <init_sensors>
     960:	fe d1       	rcall	.+1020   	; 0xd5e <data_direction_init>
     962:	81 e0       	ldi	r24, 0x01	; 1
     964:	90 e0       	ldi	r25, 0x00	; 0
     966:	e3 dc       	rcall	.-1594   	; 0x32e <led_blink_red>
     968:	81 e0       	ldi	r24, 0x01	; 1
     96a:	90 e0       	ldi	r25, 0x00	; 0
     96c:	fa dc       	rcall	.-1548   	; 0x362 <led_blink_green>
     96e:	81 e0       	ldi	r24, 0x01	; 1
     970:	90 e0       	ldi	r25, 0x00	; 0
     972:	11 dd       	rcall	.-1502   	; 0x396 <led_blink_yellow>
     974:	60 e0       	ldi	r22, 0x00	; 0
     976:	70 e0       	ldi	r23, 0x00	; 0
     978:	80 e0       	ldi	r24, 0x00	; 0
     97a:	91 e4       	ldi	r25, 0x41	; 65
     97c:	31 c2       	rjmp	.+1122   	; 0xde0 <timer_1_init>
     97e:	08 95       	ret

00000980 <get_gyro>:
     980:	cf 92       	push	r12
     982:	df 92       	push	r13
     984:	ef 92       	push	r14
     986:	ff 92       	push	r15
     988:	0f 93       	push	r16
     98a:	1f 93       	push	r17
     98c:	cf 93       	push	r28
     98e:	df 93       	push	r29
     990:	ec 01       	movw	r28, r24
     992:	41 e0       	ldi	r20, 0x01	; 1
     994:	50 e0       	ldi	r21, 0x00	; 0
     996:	68 e2       	ldi	r22, 0x28	; 40
     998:	86 ed       	ldi	r24, 0xD6	; 214
     99a:	b3 dc       	rcall	.-1690   	; 0x302 <i2c_read_reg>
     99c:	d8 2e       	mov	r13, r24
     99e:	8f e9       	ldi	r24, 0x9F	; 159
     9a0:	9f e0       	ldi	r25, 0x0F	; 15
     9a2:	01 97       	sbiw	r24, 0x01	; 1
     9a4:	f1 f7       	brne	.-4      	; 0x9a2 <get_gyro+0x22>
     9a6:	00 c0       	rjmp	.+0      	; 0x9a8 <get_gyro+0x28>
     9a8:	00 00       	nop
     9aa:	41 e0       	ldi	r20, 0x01	; 1
     9ac:	50 e0       	ldi	r21, 0x00	; 0
     9ae:	69 e2       	ldi	r22, 0x29	; 41
     9b0:	86 ed       	ldi	r24, 0xD6	; 214
     9b2:	a7 dc       	rcall	.-1714   	; 0x302 <i2c_read_reg>
     9b4:	c8 2e       	mov	r12, r24
     9b6:	41 e0       	ldi	r20, 0x01	; 1
     9b8:	50 e0       	ldi	r21, 0x00	; 0
     9ba:	6a e2       	ldi	r22, 0x2A	; 42
     9bc:	86 ed       	ldi	r24, 0xD6	; 214
     9be:	a1 dc       	rcall	.-1726   	; 0x302 <i2c_read_reg>
     9c0:	f8 2e       	mov	r15, r24
     9c2:	8f e9       	ldi	r24, 0x9F	; 159
     9c4:	9f e0       	ldi	r25, 0x0F	; 15
     9c6:	01 97       	sbiw	r24, 0x01	; 1
     9c8:	f1 f7       	brne	.-4      	; 0x9c6 <get_gyro+0x46>
     9ca:	00 c0       	rjmp	.+0      	; 0x9cc <get_gyro+0x4c>
     9cc:	00 00       	nop
     9ce:	41 e0       	ldi	r20, 0x01	; 1
     9d0:	50 e0       	ldi	r21, 0x00	; 0
     9d2:	6b e2       	ldi	r22, 0x2B	; 43
     9d4:	86 ed       	ldi	r24, 0xD6	; 214
     9d6:	95 dc       	rcall	.-1750   	; 0x302 <i2c_read_reg>
     9d8:	e8 2e       	mov	r14, r24
     9da:	41 e0       	ldi	r20, 0x01	; 1
     9dc:	50 e0       	ldi	r21, 0x00	; 0
     9de:	6c e2       	ldi	r22, 0x2C	; 44
     9e0:	86 ed       	ldi	r24, 0xD6	; 214
     9e2:	8f dc       	rcall	.-1762   	; 0x302 <i2c_read_reg>
     9e4:	18 2f       	mov	r17, r24
     9e6:	8f e9       	ldi	r24, 0x9F	; 159
     9e8:	9f e0       	ldi	r25, 0x0F	; 15
     9ea:	01 97       	sbiw	r24, 0x01	; 1
     9ec:	f1 f7       	brne	.-4      	; 0x9ea <get_gyro+0x6a>
     9ee:	00 c0       	rjmp	.+0      	; 0x9f0 <get_gyro+0x70>
     9f0:	00 00       	nop
     9f2:	41 e0       	ldi	r20, 0x01	; 1
     9f4:	50 e0       	ldi	r21, 0x00	; 0
     9f6:	6d e2       	ldi	r22, 0x2D	; 45
     9f8:	86 ed       	ldi	r24, 0xD6	; 214
     9fa:	83 dc       	rcall	.-1786   	; 0x302 <i2c_read_reg>
     9fc:	08 2f       	mov	r16, r24
     9fe:	6c 2d       	mov	r22, r12
     a00:	70 e0       	ldi	r23, 0x00	; 0
     a02:	76 2f       	mov	r23, r22
     a04:	66 27       	eor	r22, r22
     a06:	6d 0d       	add	r22, r13
     a08:	71 1d       	adc	r23, r1
     a0a:	88 27       	eor	r24, r24
     a0c:	77 fd       	sbrc	r23, 7
     a0e:	80 95       	com	r24
     a10:	98 2f       	mov	r25, r24
     a12:	dd d3       	rcall	.+1978   	; 0x11ce <__floatsisf>
     a14:	29 e2       	ldi	r18, 0x29	; 41
     a16:	3c e5       	ldi	r19, 0x5C	; 92
     a18:	4f e0       	ldi	r20, 0x0F	; 15
     a1a:	5c e3       	ldi	r21, 0x3C	; 60
     a1c:	c6 d4       	rcall	.+2444   	; 0x13aa <__mulsf3>
     a1e:	20 91 28 01 	lds	r18, 0x0128
     a22:	30 91 29 01 	lds	r19, 0x0129
     a26:	40 91 2a 01 	lds	r20, 0x012A
     a2a:	50 91 2b 01 	lds	r21, 0x012B
     a2e:	fc d2       	rcall	.+1528   	; 0x1028 <__subsf3>
     a30:	6c 87       	std	Y+12, r22	; 0x0c
     a32:	7d 87       	std	Y+13, r23	; 0x0d
     a34:	8e 87       	std	Y+14, r24	; 0x0e
     a36:	9f 87       	std	Y+15, r25	; 0x0f
     a38:	6e 2d       	mov	r22, r14
     a3a:	70 e0       	ldi	r23, 0x00	; 0
     a3c:	76 2f       	mov	r23, r22
     a3e:	66 27       	eor	r22, r22
     a40:	6f 0d       	add	r22, r15
     a42:	71 1d       	adc	r23, r1
     a44:	88 27       	eor	r24, r24
     a46:	77 fd       	sbrc	r23, 7
     a48:	80 95       	com	r24
     a4a:	98 2f       	mov	r25, r24
     a4c:	c0 d3       	rcall	.+1920   	; 0x11ce <__floatsisf>
     a4e:	29 e2       	ldi	r18, 0x29	; 41
     a50:	3c e5       	ldi	r19, 0x5C	; 92
     a52:	4f e0       	ldi	r20, 0x0F	; 15
     a54:	5c e3       	ldi	r21, 0x3C	; 60
     a56:	a9 d4       	rcall	.+2386   	; 0x13aa <__mulsf3>
     a58:	20 91 24 01 	lds	r18, 0x0124
     a5c:	30 91 25 01 	lds	r19, 0x0125
     a60:	40 91 26 01 	lds	r20, 0x0126
     a64:	50 91 27 01 	lds	r21, 0x0127
     a68:	df d2       	rcall	.+1470   	; 0x1028 <__subsf3>
     a6a:	68 8b       	std	Y+16, r22	; 0x10
     a6c:	79 8b       	std	Y+17, r23	; 0x11
     a6e:	8a 8b       	std	Y+18, r24	; 0x12
     a70:	9b 8b       	std	Y+19, r25	; 0x13
     a72:	60 2f       	mov	r22, r16
     a74:	70 e0       	ldi	r23, 0x00	; 0
     a76:	76 2f       	mov	r23, r22
     a78:	66 27       	eor	r22, r22
     a7a:	61 0f       	add	r22, r17
     a7c:	71 1d       	adc	r23, r1
     a7e:	88 27       	eor	r24, r24
     a80:	77 fd       	sbrc	r23, 7
     a82:	80 95       	com	r24
     a84:	98 2f       	mov	r25, r24
     a86:	a3 d3       	rcall	.+1862   	; 0x11ce <__floatsisf>
     a88:	29 e2       	ldi	r18, 0x29	; 41
     a8a:	3c e5       	ldi	r19, 0x5C	; 92
     a8c:	4f e0       	ldi	r20, 0x0F	; 15
     a8e:	5c e3       	ldi	r21, 0x3C	; 60
     a90:	8c d4       	rcall	.+2328   	; 0x13aa <__mulsf3>
     a92:	20 91 20 01 	lds	r18, 0x0120
     a96:	30 91 21 01 	lds	r19, 0x0121
     a9a:	40 91 22 01 	lds	r20, 0x0122
     a9e:	50 91 23 01 	lds	r21, 0x0123
     aa2:	c2 d2       	rcall	.+1412   	; 0x1028 <__subsf3>
     aa4:	6c 8b       	std	Y+20, r22	; 0x14
     aa6:	7d 8b       	std	Y+21, r23	; 0x15
     aa8:	8e 8b       	std	Y+22, r24	; 0x16
     aaa:	9f 8b       	std	Y+23, r25	; 0x17
     aac:	df 91       	pop	r29
     aae:	cf 91       	pop	r28
     ab0:	1f 91       	pop	r17
     ab2:	0f 91       	pop	r16
     ab4:	ff 90       	pop	r15
     ab6:	ef 90       	pop	r14
     ab8:	df 90       	pop	r13
     aba:	cf 90       	pop	r12
     abc:	08 95       	ret

00000abe <get_angle>:
     abe:	cf 92       	push	r12
     ac0:	df 92       	push	r13
     ac2:	ef 92       	push	r14
     ac4:	ff 92       	push	r15
     ac6:	cf 93       	push	r28
     ac8:	df 93       	push	r29
     aca:	ec 01       	movw	r28, r24
     acc:	59 df       	rcall	.-334    	; 0x980 <get_gyro>
     ace:	03 d2       	rcall	.+1030   	; 0xed6 <timer_1_get_time>
     ad0:	20 91 10 01 	lds	r18, 0x0110
     ad4:	30 91 11 01 	lds	r19, 0x0111
     ad8:	40 91 12 01 	lds	r20, 0x0112
     adc:	50 91 13 01 	lds	r21, 0x0113
     ae0:	a4 d2       	rcall	.+1352   	; 0x102a <__addsf3>
     ae2:	6b 01       	movw	r12, r22
     ae4:	7c 01       	movw	r14, r24
     ae6:	2c 85       	ldd	r18, Y+12	; 0x0c
     ae8:	3d 85       	ldd	r19, Y+13	; 0x0d
     aea:	4e 85       	ldd	r20, Y+14	; 0x0e
     aec:	5f 85       	ldd	r21, Y+15	; 0x0f
     aee:	5d d4       	rcall	.+2234   	; 0x13aa <__mulsf3>
     af0:	20 e0       	ldi	r18, 0x00	; 0
     af2:	30 e0       	ldi	r19, 0x00	; 0
     af4:	40 e4       	ldi	r20, 0x40	; 64
     af6:	50 e4       	ldi	r21, 0x40	; 64
     af8:	58 d4       	rcall	.+2224   	; 0x13aa <__mulsf3>
     afa:	9b 01       	movw	r18, r22
     afc:	ac 01       	movw	r20, r24
     afe:	68 8d       	ldd	r22, Y+24	; 0x18
     b00:	79 8d       	ldd	r23, Y+25	; 0x19
     b02:	8a 8d       	ldd	r24, Y+26	; 0x1a
     b04:	9b 8d       	ldd	r25, Y+27	; 0x1b
     b06:	91 d2       	rcall	.+1314   	; 0x102a <__addsf3>
     b08:	68 8f       	std	Y+24, r22	; 0x18
     b0a:	79 8f       	std	Y+25, r23	; 0x19
     b0c:	8a 8f       	std	Y+26, r24	; 0x1a
     b0e:	9b 8f       	std	Y+27, r25	; 0x1b
     b10:	28 89       	ldd	r18, Y+16	; 0x10
     b12:	39 89       	ldd	r19, Y+17	; 0x11
     b14:	4a 89       	ldd	r20, Y+18	; 0x12
     b16:	5b 89       	ldd	r21, Y+19	; 0x13
     b18:	c7 01       	movw	r24, r14
     b1a:	b6 01       	movw	r22, r12
     b1c:	46 d4       	rcall	.+2188   	; 0x13aa <__mulsf3>
     b1e:	20 e0       	ldi	r18, 0x00	; 0
     b20:	30 e0       	ldi	r19, 0x00	; 0
     b22:	40 e4       	ldi	r20, 0x40	; 64
     b24:	50 e4       	ldi	r21, 0x40	; 64
     b26:	41 d4       	rcall	.+2178   	; 0x13aa <__mulsf3>
     b28:	9b 01       	movw	r18, r22
     b2a:	ac 01       	movw	r20, r24
     b2c:	6c 8d       	ldd	r22, Y+28	; 0x1c
     b2e:	7d 8d       	ldd	r23, Y+29	; 0x1d
     b30:	8e 8d       	ldd	r24, Y+30	; 0x1e
     b32:	9f 8d       	ldd	r25, Y+31	; 0x1f
     b34:	7a d2       	rcall	.+1268   	; 0x102a <__addsf3>
     b36:	6c 8f       	std	Y+28, r22	; 0x1c
     b38:	7d 8f       	std	Y+29, r23	; 0x1d
     b3a:	8e 8f       	std	Y+30, r24	; 0x1e
     b3c:	9f 8f       	std	Y+31, r25	; 0x1f
     b3e:	2c 89       	ldd	r18, Y+20	; 0x14
     b40:	3d 89       	ldd	r19, Y+21	; 0x15
     b42:	4e 89       	ldd	r20, Y+22	; 0x16
     b44:	5f 89       	ldd	r21, Y+23	; 0x17
     b46:	c7 01       	movw	r24, r14
     b48:	b6 01       	movw	r22, r12
     b4a:	2f d4       	rcall	.+2142   	; 0x13aa <__mulsf3>
     b4c:	20 e0       	ldi	r18, 0x00	; 0
     b4e:	30 e0       	ldi	r19, 0x00	; 0
     b50:	40 e4       	ldi	r20, 0x40	; 64
     b52:	50 e4       	ldi	r21, 0x40	; 64
     b54:	2a d4       	rcall	.+2132   	; 0x13aa <__mulsf3>
     b56:	9b 01       	movw	r18, r22
     b58:	ac 01       	movw	r20, r24
     b5a:	68 a1       	ldd	r22, Y+32	; 0x20
     b5c:	79 a1       	ldd	r23, Y+33	; 0x21
     b5e:	8a a1       	ldd	r24, Y+34	; 0x22
     b60:	9b a1       	ldd	r25, Y+35	; 0x23
     b62:	63 d2       	rcall	.+1222   	; 0x102a <__addsf3>
     b64:	68 a3       	std	Y+32, r22	; 0x20
     b66:	79 a3       	std	Y+33, r23	; 0x21
     b68:	8a a3       	std	Y+34, r24	; 0x22
     b6a:	9b a3       	std	Y+35, r25	; 0x23
     b6c:	a7 01       	movw	r20, r14
     b6e:	96 01       	movw	r18, r12
     b70:	60 91 0c 01 	lds	r22, 0x010C
     b74:	70 91 0d 01 	lds	r23, 0x010D
     b78:	80 91 0e 01 	lds	r24, 0x010E
     b7c:	90 91 0f 01 	lds	r25, 0x010F
     b80:	54 d2       	rcall	.+1192   	; 0x102a <__addsf3>
     b82:	60 93 0c 01 	sts	0x010C, r22
     b86:	70 93 0d 01 	sts	0x010D, r23
     b8a:	80 93 0e 01 	sts	0x010E, r24
     b8e:	90 93 0f 01 	sts	0x010F, r25
     b92:	10 92 10 01 	sts	0x0110, r1
     b96:	10 92 11 01 	sts	0x0111, r1
     b9a:	10 92 12 01 	sts	0x0112, r1
     b9e:	10 92 13 01 	sts	0x0113, r1
     ba2:	84 d1       	rcall	.+776    	; 0xeac <timer_1_start>
     ba4:	df 91       	pop	r29
     ba6:	cf 91       	pop	r28
     ba8:	ff 90       	pop	r15
     baa:	ef 90       	pop	r14
     bac:	df 90       	pop	r13
     bae:	cf 90       	pop	r12
     bb0:	08 95       	ret

00000bb2 <get_distance>:
     bb2:	8f 92       	push	r8
     bb4:	9f 92       	push	r9
     bb6:	af 92       	push	r10
     bb8:	bf 92       	push	r11
     bba:	cf 92       	push	r12
     bbc:	df 92       	push	r13
     bbe:	ef 92       	push	r14
     bc0:	ff 92       	push	r15
     bc2:	cf 93       	push	r28
     bc4:	df 93       	push	r29
     bc6:	ec 01       	movw	r28, r24
     bc8:	21 dd       	rcall	.-1470   	; 0x60c <get_acc>
     bca:	85 d1       	rcall	.+778    	; 0xed6 <timer_1_get_time>
     bcc:	20 91 0c 01 	lds	r18, 0x010C
     bd0:	30 91 0d 01 	lds	r19, 0x010D
     bd4:	40 91 0e 01 	lds	r20, 0x010E
     bd8:	50 91 0f 01 	lds	r21, 0x010F
     bdc:	26 d2       	rcall	.+1100   	; 0x102a <__addsf3>
     bde:	6b 01       	movw	r12, r22
     be0:	7c 01       	movw	r14, r24
     be2:	60 93 0c 01 	sts	0x010C, r22
     be6:	70 93 0d 01 	sts	0x010D, r23
     bea:	80 93 0e 01 	sts	0x010E, r24
     bee:	90 93 0f 01 	sts	0x010F, r25
     bf2:	9b 01       	movw	r18, r22
     bf4:	ac 01       	movw	r20, r24
     bf6:	d9 d3       	rcall	.+1970   	; 0x13aa <__mulsf3>
     bf8:	4b 01       	movw	r8, r22
     bfa:	5c 01       	movw	r10, r24
     bfc:	28 81       	ld	r18, Y
     bfe:	39 81       	ldd	r19, Y+1	; 0x01
     c00:	4a 81       	ldd	r20, Y+2	; 0x02
     c02:	5b 81       	ldd	r21, Y+3	; 0x03
     c04:	d2 d3       	rcall	.+1956   	; 0x13aa <__mulsf3>
     c06:	20 e0       	ldi	r18, 0x00	; 0
     c08:	30 e0       	ldi	r19, 0x00	; 0
     c0a:	40 e0       	ldi	r20, 0x00	; 0
     c0c:	5f e3       	ldi	r21, 0x3F	; 63
     c0e:	cd d3       	rcall	.+1946   	; 0x13aa <__mulsf3>
     c10:	9b 01       	movw	r18, r22
     c12:	ac 01       	movw	r20, r24
     c14:	6c a1       	ldd	r22, Y+36	; 0x24
     c16:	7d a1       	ldd	r23, Y+37	; 0x25
     c18:	8e a1       	ldd	r24, Y+38	; 0x26
     c1a:	9f a1       	ldd	r25, Y+39	; 0x27
     c1c:	06 d2       	rcall	.+1036   	; 0x102a <__addsf3>
     c1e:	6c a3       	std	Y+36, r22	; 0x24
     c20:	7d a3       	std	Y+37, r23	; 0x25
     c22:	8e a3       	std	Y+38, r24	; 0x26
     c24:	9f a3       	std	Y+39, r25	; 0x27
     c26:	2c 81       	ldd	r18, Y+4	; 0x04
     c28:	3d 81       	ldd	r19, Y+5	; 0x05
     c2a:	4e 81       	ldd	r20, Y+6	; 0x06
     c2c:	5f 81       	ldd	r21, Y+7	; 0x07
     c2e:	c5 01       	movw	r24, r10
     c30:	b4 01       	movw	r22, r8
     c32:	bb d3       	rcall	.+1910   	; 0x13aa <__mulsf3>
     c34:	20 e0       	ldi	r18, 0x00	; 0
     c36:	30 e0       	ldi	r19, 0x00	; 0
     c38:	40 e0       	ldi	r20, 0x00	; 0
     c3a:	5f e3       	ldi	r21, 0x3F	; 63
     c3c:	b6 d3       	rcall	.+1900   	; 0x13aa <__mulsf3>
     c3e:	9b 01       	movw	r18, r22
     c40:	ac 01       	movw	r20, r24
     c42:	68 a5       	ldd	r22, Y+40	; 0x28
     c44:	79 a5       	ldd	r23, Y+41	; 0x29
     c46:	8a a5       	ldd	r24, Y+42	; 0x2a
     c48:	9b a5       	ldd	r25, Y+43	; 0x2b
     c4a:	ef d1       	rcall	.+990    	; 0x102a <__addsf3>
     c4c:	68 a7       	std	Y+40, r22	; 0x28
     c4e:	79 a7       	std	Y+41, r23	; 0x29
     c50:	8a a7       	std	Y+42, r24	; 0x2a
     c52:	9b a7       	std	Y+43, r25	; 0x2b
     c54:	28 85       	ldd	r18, Y+8	; 0x08
     c56:	39 85       	ldd	r19, Y+9	; 0x09
     c58:	4a 85       	ldd	r20, Y+10	; 0x0a
     c5a:	5b 85       	ldd	r21, Y+11	; 0x0b
     c5c:	c5 01       	movw	r24, r10
     c5e:	b4 01       	movw	r22, r8
     c60:	a4 d3       	rcall	.+1864   	; 0x13aa <__mulsf3>
     c62:	20 e0       	ldi	r18, 0x00	; 0
     c64:	30 e0       	ldi	r19, 0x00	; 0
     c66:	40 e0       	ldi	r20, 0x00	; 0
     c68:	5f e3       	ldi	r21, 0x3F	; 63
     c6a:	9f d3       	rcall	.+1854   	; 0x13aa <__mulsf3>
     c6c:	9b 01       	movw	r18, r22
     c6e:	ac 01       	movw	r20, r24
     c70:	6c a5       	ldd	r22, Y+44	; 0x2c
     c72:	7d a5       	ldd	r23, Y+45	; 0x2d
     c74:	8e a5       	ldd	r24, Y+46	; 0x2e
     c76:	9f a5       	ldd	r25, Y+47	; 0x2f
     c78:	d8 d1       	rcall	.+944    	; 0x102a <__addsf3>
     c7a:	6c a7       	std	Y+44, r22	; 0x2c
     c7c:	7d a7       	std	Y+45, r23	; 0x2d
     c7e:	8e a7       	std	Y+46, r24	; 0x2e
     c80:	9f a7       	std	Y+47, r25	; 0x2f
     c82:	a7 01       	movw	r20, r14
     c84:	96 01       	movw	r18, r12
     c86:	60 91 10 01 	lds	r22, 0x0110
     c8a:	70 91 11 01 	lds	r23, 0x0111
     c8e:	80 91 12 01 	lds	r24, 0x0112
     c92:	90 91 13 01 	lds	r25, 0x0113
     c96:	c9 d1       	rcall	.+914    	; 0x102a <__addsf3>
     c98:	60 93 10 01 	sts	0x0110, r22
     c9c:	70 93 11 01 	sts	0x0111, r23
     ca0:	80 93 12 01 	sts	0x0112, r24
     ca4:	90 93 13 01 	sts	0x0113, r25
     ca8:	10 92 0c 01 	sts	0x010C, r1
     cac:	10 92 0d 01 	sts	0x010D, r1
     cb0:	10 92 0e 01 	sts	0x010E, r1
     cb4:	10 92 0f 01 	sts	0x010F, r1
     cb8:	f9 d0       	rcall	.+498    	; 0xeac <timer_1_start>
     cba:	df 91       	pop	r29
     cbc:	cf 91       	pop	r28
     cbe:	ff 90       	pop	r15
     cc0:	ef 90       	pop	r14
     cc2:	df 90       	pop	r13
     cc4:	cf 90       	pop	r12
     cc6:	bf 90       	pop	r11
     cc8:	af 90       	pop	r10
     cca:	9f 90       	pop	r9
     ccc:	8f 90       	pop	r8
     cce:	08 95       	ret

00000cd0 <main>:
/******************************************************************
****************************** MAIN *******************************
******************************************************************/

int main(void)
{
     cd0:	cf 93       	push	r28
     cd2:	df 93       	push	r29
     cd4:	cd b7       	in	r28, 0x3d	; 61
     cd6:	de b7       	in	r29, 0x3e	; 62
     cd8:	2c 97       	sbiw	r28, 0x0c	; 12
     cda:	0f b6       	in	r0, 0x3f	; 63
     cdc:	f8 94       	cli
     cde:	de bf       	out	0x3e, r29	; 62
     ce0:	0f be       	out	0x3f, r0	; 63
     ce2:	cd bf       	out	0x3d, r28	; 61
	Sensor_Data* sd = create_empty_sensor(true);
     ce4:	81 e0       	ldi	r24, 0x01	; 1
     ce6:	42 da       	rcall	.-2940   	; 0x16c <create_empty_sensor>
     ce8:	8c 01       	movw	r16, r24
	volatile float watch_x = 0.0;
     cea:	19 82       	std	Y+1, r1	; 0x01
     cec:	1a 82       	std	Y+2, r1	; 0x02
     cee:	1b 82       	std	Y+3, r1	; 0x03
     cf0:	1c 82       	std	Y+4, r1	; 0x04
	volatile float watch_y = 0.0;
     cf2:	1d 82       	std	Y+5, r1	; 0x05
     cf4:	1e 82       	std	Y+6, r1	; 0x06
     cf6:	1f 82       	std	Y+7, r1	; 0x07
     cf8:	18 86       	std	Y+8, r1	; 0x08
	volatile float watch_z = 0.0;
     cfa:	19 86       	std	Y+9, r1	; 0x09
     cfc:	1a 86       	std	Y+10, r1	; 0x0a
     cfe:	1b 86       	std	Y+11, r1	; 0x0b
     d00:	1c 86       	std	Y+12, r1	; 0x0c
	initialize_all();
     d02:	27 de       	rcall	.-946    	; 0x952 <initialize_all>
	while(1)
	{
		//get_distance(sd);
		//watch_x = (sd->distance_x) * 100;
		//watch_y = (sd->distance_y) * 100;
		get_distance(sd);
     d04:	c8 01       	movw	r24, r16
     d06:	55 df       	rcall	.-342    	; 0xbb2 <get_distance>
		get_angle(sd);
     d08:	c8 01       	movw	r24, r16
     d0a:	d9 de       	rcall	.-590    	; 0xabe <get_angle>
		watch_x = sd->distance_x * 100.0;
     d0c:	20 e0       	ldi	r18, 0x00	; 0
     d0e:	30 e0       	ldi	r19, 0x00	; 0
     d10:	48 ec       	ldi	r20, 0xC8	; 200
     d12:	52 e4       	ldi	r21, 0x42	; 66
     d14:	f8 01       	movw	r30, r16
     d16:	64 a1       	ldd	r22, Z+36	; 0x24
     d18:	75 a1       	ldd	r23, Z+37	; 0x25
     d1a:	86 a1       	ldd	r24, Z+38	; 0x26
     d1c:	97 a1       	ldd	r25, Z+39	; 0x27
     d1e:	45 d3       	rcall	.+1674   	; 0x13aa <__mulsf3>
     d20:	69 83       	std	Y+1, r22	; 0x01
     d22:	7a 83       	std	Y+2, r23	; 0x02
     d24:	8b 83       	std	Y+3, r24	; 0x03
     d26:	9c 83       	std	Y+4, r25	; 0x04
		watch_y = sd->distance_y * 100.0;
     d28:	20 e0       	ldi	r18, 0x00	; 0
     d2a:	30 e0       	ldi	r19, 0x00	; 0
     d2c:	48 ec       	ldi	r20, 0xC8	; 200
     d2e:	52 e4       	ldi	r21, 0x42	; 66
     d30:	f8 01       	movw	r30, r16
     d32:	60 a5       	ldd	r22, Z+40	; 0x28
     d34:	71 a5       	ldd	r23, Z+41	; 0x29
     d36:	82 a5       	ldd	r24, Z+42	; 0x2a
     d38:	93 a5       	ldd	r25, Z+43	; 0x2b
     d3a:	37 d3       	rcall	.+1646   	; 0x13aa <__mulsf3>
     d3c:	6d 83       	std	Y+5, r22	; 0x05
     d3e:	7e 83       	std	Y+6, r23	; 0x06
     d40:	8f 83       	std	Y+7, r24	; 0x07
     d42:	98 87       	std	Y+8, r25	; 0x08
		watch_z = sd->acc_z;
     d44:	f8 01       	movw	r30, r16
     d46:	40 85       	ldd	r20, Z+8	; 0x08
     d48:	51 85       	ldd	r21, Z+9	; 0x09
     d4a:	62 85       	ldd	r22, Z+10	; 0x0a
     d4c:	73 85       	ldd	r23, Z+11	; 0x0b
     d4e:	49 87       	std	Y+9, r20	; 0x09
     d50:	5a 87       	std	Y+10, r21	; 0x0a
     d52:	6b 87       	std	Y+11, r22	; 0x0b
     d54:	7c 87       	std	Y+12, r23	; 0x0c
     d56:	d6 cf       	rjmp	.-84     	; 0xd04 <main+0x34>

00000d58 <spi_init>:
}

void mosi_test (uint16_t i)
{
	//Blink LED "i" number of times
	for (; i>0; --i)
     d58:	80 e4       	ldi	r24, 0x40	; 64
     d5a:	8c bd       	out	0x2c, r24	; 44
     d5c:	08 95       	ret

00000d5e <data_direction_init>:
	}
}

void data_direction_init()
{
	DDRB = (1<<DDB0)|(1<<DDB1)|(1<<DDB2)|(1<<DDB6); //Set PB0, PB1, PB2 and PB6 (MISO) as outputs
     d5e:	87 e4       	ldi	r24, 0x47	; 71
     d60:	84 b9       	out	0x04, r24	; 4
     d62:	08 95       	ret

00000d64 <__vector_15>:

volatile uint64_t overflows;
volatile float prescaler_;

ISR(TIMER1_OVF_vect)
{
     d64:	1f 92       	push	r1
     d66:	0f 92       	push	r0
     d68:	0f b6       	in	r0, 0x3f	; 63
     d6a:	0f 92       	push	r0
     d6c:	11 24       	eor	r1, r1
     d6e:	2f 93       	push	r18
     d70:	3f 93       	push	r19
     d72:	4f 93       	push	r20
     d74:	5f 93       	push	r21
     d76:	6f 93       	push	r22
     d78:	7f 93       	push	r23
     d7a:	8f 93       	push	r24
     d7c:	9f 93       	push	r25
     d7e:	af 93       	push	r26
	//keep track of number of overflows
	overflows++;
     d80:	20 91 34 01 	lds	r18, 0x0134
     d84:	30 91 35 01 	lds	r19, 0x0135
     d88:	40 91 36 01 	lds	r20, 0x0136
     d8c:	50 91 37 01 	lds	r21, 0x0137
     d90:	60 91 38 01 	lds	r22, 0x0138
     d94:	70 91 39 01 	lds	r23, 0x0139
     d98:	80 91 3a 01 	lds	r24, 0x013A
     d9c:	90 91 3b 01 	lds	r25, 0x013B
     da0:	a1 e0       	ldi	r26, 0x01	; 1
     da2:	8e d3       	rcall	.+1820   	; 0x14c0 <__adddi3_s8>
     da4:	20 93 34 01 	sts	0x0134, r18
     da8:	30 93 35 01 	sts	0x0135, r19
     dac:	40 93 36 01 	sts	0x0136, r20
     db0:	50 93 37 01 	sts	0x0137, r21
     db4:	60 93 38 01 	sts	0x0138, r22
     db8:	70 93 39 01 	sts	0x0139, r23
     dbc:	80 93 3a 01 	sts	0x013A, r24
     dc0:	90 93 3b 01 	sts	0x013B, r25
}
     dc4:	af 91       	pop	r26
     dc6:	9f 91       	pop	r25
     dc8:	8f 91       	pop	r24
     dca:	7f 91       	pop	r23
     dcc:	6f 91       	pop	r22
     dce:	5f 91       	pop	r21
     dd0:	4f 91       	pop	r20
     dd2:	3f 91       	pop	r19
     dd4:	2f 91       	pop	r18
     dd6:	0f 90       	pop	r0
     dd8:	0f be       	out	0x3f, r0	; 63
     dda:	0f 90       	pop	r0
     ddc:	1f 90       	pop	r1
     dde:	18 95       	reti

00000de0 <timer_1_init>:

void timer_1_init(float prescaler)
{
     de0:	cf 92       	push	r12
     de2:	df 92       	push	r13
     de4:	ef 92       	push	r14
     de6:	ff 92       	push	r15
     de8:	6b 01       	movw	r12, r22
     dea:	7c 01       	movw	r14, r24
	//normal mode
	TCCR1A |= (0 << WGM10)|(0 << WGM11)|(0 << WGM12);;
     dec:	e0 e8       	ldi	r30, 0x80	; 128
     dee:	f0 e0       	ldi	r31, 0x00	; 0
     df0:	80 81       	ld	r24, Z
     df2:	80 83       	st	Z, r24
	if (prescaler == 1.0)
     df4:	20 e0       	ldi	r18, 0x00	; 0
     df6:	30 e0       	ldi	r19, 0x00	; 0
     df8:	40 e8       	ldi	r20, 0x80	; 128
     dfa:	5f e3       	ldi	r21, 0x3F	; 63
     dfc:	c7 01       	movw	r24, r14
     dfe:	b6 01       	movw	r22, r12
     e00:	78 d1       	rcall	.+752    	; 0x10f2 <__cmpsf2>
     e02:	81 11       	cpse	r24, r1
     e04:	06 c0       	rjmp	.+12     	; 0xe12 <timer_1_init+0x32>
	{
		TCCR1B |= (1 << CS00)|(0 << CS01)|(0 << CS02);
     e06:	e1 e8       	ldi	r30, 0x81	; 129
     e08:	f0 e0       	ldi	r31, 0x00	; 0
     e0a:	80 81       	ld	r24, Z
     e0c:	81 60       	ori	r24, 0x01	; 1
     e0e:	80 83       	st	Z, r24
     e10:	1e c0       	rjmp	.+60     	; 0xe4e <timer_1_init+0x6e>
	}
	if (prescaler == 8.0)
     e12:	20 e0       	ldi	r18, 0x00	; 0
     e14:	30 e0       	ldi	r19, 0x00	; 0
     e16:	40 e0       	ldi	r20, 0x00	; 0
     e18:	51 e4       	ldi	r21, 0x41	; 65
     e1a:	c7 01       	movw	r24, r14
     e1c:	b6 01       	movw	r22, r12
     e1e:	69 d1       	rcall	.+722    	; 0x10f2 <__cmpsf2>
     e20:	81 11       	cpse	r24, r1
     e22:	06 c0       	rjmp	.+12     	; 0xe30 <timer_1_init+0x50>
	{
		TCCR1B |= (0 << CS00)|(1 << CS01)|(0 << CS02);
     e24:	e1 e8       	ldi	r30, 0x81	; 129
     e26:	f0 e0       	ldi	r31, 0x00	; 0
     e28:	80 81       	ld	r24, Z
     e2a:	82 60       	ori	r24, 0x02	; 2
     e2c:	80 83       	st	Z, r24
     e2e:	1e c0       	rjmp	.+60     	; 0xe6c <timer_1_init+0x8c>
	}
	if (prescaler == 64.0)
     e30:	20 e0       	ldi	r18, 0x00	; 0
     e32:	30 e0       	ldi	r19, 0x00	; 0
     e34:	40 e8       	ldi	r20, 0x80	; 128
     e36:	52 e4       	ldi	r21, 0x42	; 66
     e38:	c7 01       	movw	r24, r14
     e3a:	b6 01       	movw	r22, r12
     e3c:	5a d1       	rcall	.+692    	; 0x10f2 <__cmpsf2>
     e3e:	81 11       	cpse	r24, r1
     e40:	06 c0       	rjmp	.+12     	; 0xe4e <timer_1_init+0x6e>
	{
		TCCR1B |= (1 << CS00)|(1 << CS01)|(0 << CS02);
     e42:	e1 e8       	ldi	r30, 0x81	; 129
     e44:	f0 e0       	ldi	r31, 0x00	; 0
     e46:	80 81       	ld	r24, Z
     e48:	83 60       	ori	r24, 0x03	; 3
     e4a:	80 83       	st	Z, r24
     e4c:	1d c0       	rjmp	.+58     	; 0xe88 <timer_1_init+0xa8>
	}
	if (prescaler == 256.0)
     e4e:	20 e0       	ldi	r18, 0x00	; 0
     e50:	30 e0       	ldi	r19, 0x00	; 0
     e52:	40 e8       	ldi	r20, 0x80	; 128
     e54:	53 e4       	ldi	r21, 0x43	; 67
     e56:	c7 01       	movw	r24, r14
     e58:	b6 01       	movw	r22, r12
     e5a:	4b d1       	rcall	.+662    	; 0x10f2 <__cmpsf2>
     e5c:	81 11       	cpse	r24, r1
     e5e:	06 c0       	rjmp	.+12     	; 0xe6c <timer_1_init+0x8c>
	{
		TCCR1B |= (0 << CS00)|(0 << CS01)|(1 << CS02);
     e60:	e1 e8       	ldi	r30, 0x81	; 129
     e62:	f0 e0       	ldi	r31, 0x00	; 0
     e64:	80 81       	ld	r24, Z
     e66:	84 60       	ori	r24, 0x04	; 4
     e68:	80 83       	st	Z, r24
     e6a:	0e c0       	rjmp	.+28     	; 0xe88 <timer_1_init+0xa8>
	}
	if (prescaler == 1024.0)
     e6c:	20 e0       	ldi	r18, 0x00	; 0
     e6e:	30 e0       	ldi	r19, 0x00	; 0
     e70:	40 e8       	ldi	r20, 0x80	; 128
     e72:	54 e4       	ldi	r21, 0x44	; 68
     e74:	c7 01       	movw	r24, r14
     e76:	b6 01       	movw	r22, r12
     e78:	3c d1       	rcall	.+632    	; 0x10f2 <__cmpsf2>
     e7a:	81 11       	cpse	r24, r1
     e7c:	05 c0       	rjmp	.+10     	; 0xe88 <timer_1_init+0xa8>
	{
		TCCR1B |= (1 << CS00)|(0 << CS01)|(1 << CS02);
     e7e:	e1 e8       	ldi	r30, 0x81	; 129
     e80:	f0 e0       	ldi	r31, 0x00	; 0
     e82:	80 81       	ld	r24, Z
     e84:	85 60       	ori	r24, 0x05	; 5
     e86:	80 83       	st	Z, r24
	}
	prescaler_ = prescaler;
     e88:	c0 92 30 01 	sts	0x0130, r12
     e8c:	d0 92 31 01 	sts	0x0131, r13
     e90:	e0 92 32 01 	sts	0x0132, r14
     e94:	f0 92 33 01 	sts	0x0133, r15
	TIMSK1 |= (1 << TOIE1);
     e98:	ef e6       	ldi	r30, 0x6F	; 111
     e9a:	f0 e0       	ldi	r31, 0x00	; 0
     e9c:	80 81       	ld	r24, Z
     e9e:	81 60       	ori	r24, 0x01	; 1
     ea0:	80 83       	st	Z, r24
}
     ea2:	ff 90       	pop	r15
     ea4:	ef 90       	pop	r14
     ea6:	df 90       	pop	r13
     ea8:	cf 90       	pop	r12
     eaa:	08 95       	ret

00000eac <timer_1_start>:

void timer_1_start()
{
	overflows = 0;
     eac:	10 92 34 01 	sts	0x0134, r1
     eb0:	10 92 35 01 	sts	0x0135, r1
     eb4:	10 92 36 01 	sts	0x0136, r1
     eb8:	10 92 37 01 	sts	0x0137, r1
     ebc:	10 92 38 01 	sts	0x0138, r1
     ec0:	10 92 39 01 	sts	0x0139, r1
     ec4:	10 92 3a 01 	sts	0x013A, r1
     ec8:	10 92 3b 01 	sts	0x013B, r1
	TCNT1 = 0;
     ecc:	10 92 85 00 	sts	0x0085, r1
     ed0:	10 92 84 00 	sts	0x0084, r1
     ed4:	08 95       	ret

00000ed6 <timer_1_get_time>:
}

float timer_1_get_time()
{
     ed6:	2f 92       	push	r2
     ed8:	3f 92       	push	r3
     eda:	4f 92       	push	r4
     edc:	5f 92       	push	r5
     ede:	6f 92       	push	r6
     ee0:	7f 92       	push	r7
     ee2:	8f 92       	push	r8
     ee4:	9f 92       	push	r9
     ee6:	af 92       	push	r10
     ee8:	bf 92       	push	r11
     eea:	cf 92       	push	r12
     eec:	df 92       	push	r13
     eee:	ef 92       	push	r14
     ef0:	ff 92       	push	r15
     ef2:	0f 93       	push	r16
     ef4:	1f 93       	push	r17
     ef6:	cf 93       	push	r28
     ef8:	df 93       	push	r29
     efa:	00 d0       	rcall	.+0      	; 0xefc <timer_1_get_time+0x26>
     efc:	00 d0       	rcall	.+0      	; 0xefe <timer_1_get_time+0x28>
     efe:	00 d0       	rcall	.+0      	; 0xf00 <timer_1_get_time+0x2a>
     f00:	cd b7       	in	r28, 0x3d	; 61
     f02:	de b7       	in	r29, 0x3e	; 62
	float time = 0.0;
	uint16_t count = TCNT1;
     f04:	60 90 84 00 	lds	r6, 0x0084
     f08:	70 90 85 00 	lds	r7, 0x0085
	uint64_t tot_count = (overflows * 65535) + count;
     f0c:	20 90 34 01 	lds	r2, 0x0134
     f10:	30 90 35 01 	lds	r3, 0x0135
     f14:	80 90 36 01 	lds	r8, 0x0136
     f18:	90 90 37 01 	lds	r9, 0x0137
     f1c:	80 91 38 01 	lds	r24, 0x0138
     f20:	8e 83       	std	Y+6, r24	; 0x06
     f22:	e0 91 39 01 	lds	r30, 0x0139
     f26:	ed 83       	std	Y+5, r30	; 0x05
     f28:	40 90 3a 01 	lds	r4, 0x013A
     f2c:	50 90 3b 01 	lds	r5, 0x013B
	time = (prescaler_/F_CPU) * (tot_count + 1);
     f30:	60 91 30 01 	lds	r22, 0x0130
     f34:	70 91 31 01 	lds	r23, 0x0131
     f38:	80 91 32 01 	lds	r24, 0x0132
     f3c:	90 91 33 01 	lds	r25, 0x0133
     f40:	20 e0       	ldi	r18, 0x00	; 0
     f42:	34 e2       	ldi	r19, 0x24	; 36
     f44:	44 e7       	ldi	r20, 0x74	; 116
     f46:	5b e4       	ldi	r21, 0x4B	; 75
     f48:	d8 d0       	rcall	.+432    	; 0x10fa <__divsf3>
     f4a:	69 83       	std	Y+1, r22	; 0x01
     f4c:	7a 83       	std	Y+2, r23	; 0x02
     f4e:	8b 83       	std	Y+3, r24	; 0x03
     f50:	9c 83       	std	Y+4, r25	; 0x04

float timer_1_get_time()
{
	float time = 0.0;
	uint16_t count = TCNT1;
	uint64_t tot_count = (overflows * 65535) + count;
     f52:	22 2d       	mov	r18, r2
     f54:	33 2d       	mov	r19, r3
     f56:	48 2d       	mov	r20, r8
     f58:	59 2d       	mov	r21, r9
     f5a:	6e 81       	ldd	r22, Y+6	; 0x06
     f5c:	7d 81       	ldd	r23, Y+5	; 0x05
     f5e:	84 2d       	mov	r24, r4
     f60:	95 2d       	mov	r25, r5
     f62:	07 e0       	ldi	r16, 0x07	; 7
     f64:	8b d2       	rcall	.+1302   	; 0x147c <__ashldi3>
     f66:	a2 2c       	mov	r10, r2
     f68:	b3 2c       	mov	r11, r3
     f6a:	c8 2c       	mov	r12, r8
     f6c:	d9 2c       	mov	r13, r9
     f6e:	ee 80       	ldd	r14, Y+6	; 0x06
     f70:	fd 80       	ldd	r15, Y+5	; 0x05
     f72:	04 2d       	mov	r16, r4
     f74:	15 2d       	mov	r17, r5
     f76:	9b d2       	rcall	.+1334   	; 0x14ae <__adddi3>
     f78:	01 e0       	ldi	r16, 0x01	; 1
     f7a:	80 d2       	rcall	.+1280   	; 0x147c <__ashldi3>
     f7c:	04 2d       	mov	r16, r4
     f7e:	ac d2       	rcall	.+1368   	; 0x14d8 <__subdi3>
     f80:	a2 2e       	mov	r10, r18
     f82:	b3 2e       	mov	r11, r19
     f84:	c4 2e       	mov	r12, r20
     f86:	d5 2e       	mov	r13, r21
     f88:	e6 2e       	mov	r14, r22
     f8a:	f7 2e       	mov	r15, r23
     f8c:	e8 2f       	mov	r30, r24
     f8e:	19 2f       	mov	r17, r25
     f90:	04 e0       	ldi	r16, 0x04	; 4
     f92:	74 d2       	rcall	.+1256   	; 0x147c <__ashldi3>
     f94:	0e 2f       	mov	r16, r30
     f96:	a0 d2       	rcall	.+1344   	; 0x14d8 <__subdi3>
     f98:	82 2e       	mov	r8, r18
     f9a:	93 2e       	mov	r9, r19
     f9c:	44 2e       	mov	r4, r20
     f9e:	55 2e       	mov	r5, r21
     fa0:	b6 2f       	mov	r27, r22
     fa2:	a7 2f       	mov	r26, r23
     fa4:	f8 2f       	mov	r31, r24
     fa6:	e9 2f       	mov	r30, r25
     fa8:	04 e0       	ldi	r16, 0x04	; 4
     faa:	68 d2       	rcall	.+1232   	; 0x147c <__ashldi3>
     fac:	a2 2e       	mov	r10, r18
     fae:	b3 2e       	mov	r11, r19
     fb0:	c4 2e       	mov	r12, r20
     fb2:	d5 2e       	mov	r13, r21
     fb4:	e6 2e       	mov	r14, r22
     fb6:	f7 2e       	mov	r15, r23
     fb8:	08 2f       	mov	r16, r24
     fba:	19 2f       	mov	r17, r25
     fbc:	28 2d       	mov	r18, r8
     fbe:	39 2d       	mov	r19, r9
     fc0:	44 2d       	mov	r20, r4
     fc2:	55 2d       	mov	r21, r5
     fc4:	6b 2f       	mov	r22, r27
     fc6:	7a 2f       	mov	r23, r26
     fc8:	8f 2f       	mov	r24, r31
     fca:	9e 2f       	mov	r25, r30
     fcc:	70 d2       	rcall	.+1248   	; 0x14ae <__adddi3>
     fce:	13 01       	movw	r2, r6
     fd0:	a2 2c       	mov	r10, r2
     fd2:	b3 2c       	mov	r11, r3
     fd4:	c1 2c       	mov	r12, r1
     fd6:	d1 2c       	mov	r13, r1
     fd8:	e1 2c       	mov	r14, r1
     fda:	f1 2c       	mov	r15, r1
     fdc:	00 e0       	ldi	r16, 0x00	; 0
     fde:	10 e0       	ldi	r17, 0x00	; 0
     fe0:	66 d2       	rcall	.+1228   	; 0x14ae <__adddi3>
	time = (prescaler_/F_CPU) * (tot_count + 1);
     fe2:	a1 e0       	ldi	r26, 0x01	; 1
     fe4:	6d d2       	rcall	.+1242   	; 0x14c0 <__adddi3_s8>
     fe6:	2e d1       	rcall	.+604    	; 0x1244 <__floatundisf>
     fe8:	9b 01       	movw	r18, r22
     fea:	ac 01       	movw	r20, r24
     fec:	69 81       	ldd	r22, Y+1	; 0x01
     fee:	7a 81       	ldd	r23, Y+2	; 0x02
     ff0:	8b 81       	ldd	r24, Y+3	; 0x03
     ff2:	9c 81       	ldd	r25, Y+4	; 0x04
     ff4:	da d1       	rcall	.+948    	; 0x13aa <__mulsf3>
	return time;
     ff6:	26 96       	adiw	r28, 0x06	; 6
     ff8:	0f b6       	in	r0, 0x3f	; 63
     ffa:	f8 94       	cli
     ffc:	de bf       	out	0x3e, r29	; 62
     ffe:	0f be       	out	0x3f, r0	; 63
    1000:	cd bf       	out	0x3d, r28	; 61
    1002:	df 91       	pop	r29
    1004:	cf 91       	pop	r28
    1006:	1f 91       	pop	r17
    1008:	0f 91       	pop	r16
    100a:	ff 90       	pop	r15
    100c:	ef 90       	pop	r14
    100e:	df 90       	pop	r13
    1010:	cf 90       	pop	r12
    1012:	bf 90       	pop	r11
    1014:	af 90       	pop	r10
    1016:	9f 90       	pop	r9
    1018:	8f 90       	pop	r8
    101a:	7f 90       	pop	r7
    101c:	6f 90       	pop	r6
    101e:	5f 90       	pop	r5
    1020:	4f 90       	pop	r4
    1022:	3f 90       	pop	r3
    1024:	2f 90       	pop	r2
    1026:	08 95       	ret

00001028 <__subsf3>:
    1028:	50 58       	subi	r21, 0x80	; 128

0000102a <__addsf3>:
    102a:	bb 27       	eor	r27, r27
    102c:	aa 27       	eor	r26, r26
    102e:	0e d0       	rcall	.+28     	; 0x104c <__addsf3x>
    1030:	82 c1       	rjmp	.+772    	; 0x1336 <__fp_round>
    1032:	73 d1       	rcall	.+742    	; 0x131a <__fp_pscA>
    1034:	30 f0       	brcs	.+12     	; 0x1042 <__addsf3+0x18>
    1036:	78 d1       	rcall	.+752    	; 0x1328 <__fp_pscB>
    1038:	20 f0       	brcs	.+8      	; 0x1042 <__addsf3+0x18>
    103a:	31 f4       	brne	.+12     	; 0x1048 <__addsf3+0x1e>
    103c:	9f 3f       	cpi	r25, 0xFF	; 255
    103e:	11 f4       	brne	.+4      	; 0x1044 <__addsf3+0x1a>
    1040:	1e f4       	brtc	.+6      	; 0x1048 <__addsf3+0x1e>
    1042:	68 c1       	rjmp	.+720    	; 0x1314 <__fp_nan>
    1044:	0e f4       	brtc	.+2      	; 0x1048 <__addsf3+0x1e>
    1046:	e0 95       	com	r30
    1048:	e7 fb       	bst	r30, 7
    104a:	5e c1       	rjmp	.+700    	; 0x1308 <__fp_inf>

0000104c <__addsf3x>:
    104c:	e9 2f       	mov	r30, r25
    104e:	84 d1       	rcall	.+776    	; 0x1358 <__fp_split3>
    1050:	80 f3       	brcs	.-32     	; 0x1032 <__addsf3+0x8>
    1052:	ba 17       	cp	r27, r26
    1054:	62 07       	cpc	r22, r18
    1056:	73 07       	cpc	r23, r19
    1058:	84 07       	cpc	r24, r20
    105a:	95 07       	cpc	r25, r21
    105c:	18 f0       	brcs	.+6      	; 0x1064 <__addsf3x+0x18>
    105e:	71 f4       	brne	.+28     	; 0x107c <__addsf3x+0x30>
    1060:	9e f5       	brtc	.+102    	; 0x10c8 <__addsf3x+0x7c>
    1062:	9c c1       	rjmp	.+824    	; 0x139c <__fp_zero>
    1064:	0e f4       	brtc	.+2      	; 0x1068 <__addsf3x+0x1c>
    1066:	e0 95       	com	r30
    1068:	0b 2e       	mov	r0, r27
    106a:	ba 2f       	mov	r27, r26
    106c:	a0 2d       	mov	r26, r0
    106e:	0b 01       	movw	r0, r22
    1070:	b9 01       	movw	r22, r18
    1072:	90 01       	movw	r18, r0
    1074:	0c 01       	movw	r0, r24
    1076:	ca 01       	movw	r24, r20
    1078:	a0 01       	movw	r20, r0
    107a:	11 24       	eor	r1, r1
    107c:	ff 27       	eor	r31, r31
    107e:	59 1b       	sub	r21, r25
    1080:	99 f0       	breq	.+38     	; 0x10a8 <__addsf3x+0x5c>
    1082:	59 3f       	cpi	r21, 0xF9	; 249
    1084:	50 f4       	brcc	.+20     	; 0x109a <__addsf3x+0x4e>
    1086:	50 3e       	cpi	r21, 0xE0	; 224
    1088:	68 f1       	brcs	.+90     	; 0x10e4 <__addsf3x+0x98>
    108a:	1a 16       	cp	r1, r26
    108c:	f0 40       	sbci	r31, 0x00	; 0
    108e:	a2 2f       	mov	r26, r18
    1090:	23 2f       	mov	r18, r19
    1092:	34 2f       	mov	r19, r20
    1094:	44 27       	eor	r20, r20
    1096:	58 5f       	subi	r21, 0xF8	; 248
    1098:	f3 cf       	rjmp	.-26     	; 0x1080 <__addsf3x+0x34>
    109a:	46 95       	lsr	r20
    109c:	37 95       	ror	r19
    109e:	27 95       	ror	r18
    10a0:	a7 95       	ror	r26
    10a2:	f0 40       	sbci	r31, 0x00	; 0
    10a4:	53 95       	inc	r21
    10a6:	c9 f7       	brne	.-14     	; 0x109a <__addsf3x+0x4e>
    10a8:	7e f4       	brtc	.+30     	; 0x10c8 <__addsf3x+0x7c>
    10aa:	1f 16       	cp	r1, r31
    10ac:	ba 0b       	sbc	r27, r26
    10ae:	62 0b       	sbc	r22, r18
    10b0:	73 0b       	sbc	r23, r19
    10b2:	84 0b       	sbc	r24, r20
    10b4:	ba f0       	brmi	.+46     	; 0x10e4 <__addsf3x+0x98>
    10b6:	91 50       	subi	r25, 0x01	; 1
    10b8:	a1 f0       	breq	.+40     	; 0x10e2 <__addsf3x+0x96>
    10ba:	ff 0f       	add	r31, r31
    10bc:	bb 1f       	adc	r27, r27
    10be:	66 1f       	adc	r22, r22
    10c0:	77 1f       	adc	r23, r23
    10c2:	88 1f       	adc	r24, r24
    10c4:	c2 f7       	brpl	.-16     	; 0x10b6 <__addsf3x+0x6a>
    10c6:	0e c0       	rjmp	.+28     	; 0x10e4 <__addsf3x+0x98>
    10c8:	ba 0f       	add	r27, r26
    10ca:	62 1f       	adc	r22, r18
    10cc:	73 1f       	adc	r23, r19
    10ce:	84 1f       	adc	r24, r20
    10d0:	48 f4       	brcc	.+18     	; 0x10e4 <__addsf3x+0x98>
    10d2:	87 95       	ror	r24
    10d4:	77 95       	ror	r23
    10d6:	67 95       	ror	r22
    10d8:	b7 95       	ror	r27
    10da:	f7 95       	ror	r31
    10dc:	9e 3f       	cpi	r25, 0xFE	; 254
    10de:	08 f0       	brcs	.+2      	; 0x10e2 <__addsf3x+0x96>
    10e0:	b3 cf       	rjmp	.-154    	; 0x1048 <__addsf3+0x1e>
    10e2:	93 95       	inc	r25
    10e4:	88 0f       	add	r24, r24
    10e6:	08 f0       	brcs	.+2      	; 0x10ea <__addsf3x+0x9e>
    10e8:	99 27       	eor	r25, r25
    10ea:	ee 0f       	add	r30, r30
    10ec:	97 95       	ror	r25
    10ee:	87 95       	ror	r24
    10f0:	08 95       	ret

000010f2 <__cmpsf2>:
    10f2:	e6 d0       	rcall	.+460    	; 0x12c0 <__fp_cmp>
    10f4:	08 f4       	brcc	.+2      	; 0x10f8 <__cmpsf2+0x6>
    10f6:	81 e0       	ldi	r24, 0x01	; 1
    10f8:	08 95       	ret

000010fa <__divsf3>:
    10fa:	0c d0       	rcall	.+24     	; 0x1114 <__divsf3x>
    10fc:	1c c1       	rjmp	.+568    	; 0x1336 <__fp_round>
    10fe:	14 d1       	rcall	.+552    	; 0x1328 <__fp_pscB>
    1100:	40 f0       	brcs	.+16     	; 0x1112 <__divsf3+0x18>
    1102:	0b d1       	rcall	.+534    	; 0x131a <__fp_pscA>
    1104:	30 f0       	brcs	.+12     	; 0x1112 <__divsf3+0x18>
    1106:	21 f4       	brne	.+8      	; 0x1110 <__divsf3+0x16>
    1108:	5f 3f       	cpi	r21, 0xFF	; 255
    110a:	19 f0       	breq	.+6      	; 0x1112 <__divsf3+0x18>
    110c:	fd c0       	rjmp	.+506    	; 0x1308 <__fp_inf>
    110e:	51 11       	cpse	r21, r1
    1110:	46 c1       	rjmp	.+652    	; 0x139e <__fp_szero>
    1112:	00 c1       	rjmp	.+512    	; 0x1314 <__fp_nan>

00001114 <__divsf3x>:
    1114:	21 d1       	rcall	.+578    	; 0x1358 <__fp_split3>
    1116:	98 f3       	brcs	.-26     	; 0x10fe <__divsf3+0x4>

00001118 <__divsf3_pse>:
    1118:	99 23       	and	r25, r25
    111a:	c9 f3       	breq	.-14     	; 0x110e <__divsf3+0x14>
    111c:	55 23       	and	r21, r21
    111e:	b1 f3       	breq	.-20     	; 0x110c <__divsf3+0x12>
    1120:	95 1b       	sub	r25, r21
    1122:	55 0b       	sbc	r21, r21
    1124:	bb 27       	eor	r27, r27
    1126:	aa 27       	eor	r26, r26
    1128:	62 17       	cp	r22, r18
    112a:	73 07       	cpc	r23, r19
    112c:	84 07       	cpc	r24, r20
    112e:	38 f0       	brcs	.+14     	; 0x113e <__divsf3_pse+0x26>
    1130:	9f 5f       	subi	r25, 0xFF	; 255
    1132:	5f 4f       	sbci	r21, 0xFF	; 255
    1134:	22 0f       	add	r18, r18
    1136:	33 1f       	adc	r19, r19
    1138:	44 1f       	adc	r20, r20
    113a:	aa 1f       	adc	r26, r26
    113c:	a9 f3       	breq	.-22     	; 0x1128 <__divsf3_pse+0x10>
    113e:	33 d0       	rcall	.+102    	; 0x11a6 <__divsf3_pse+0x8e>
    1140:	0e 2e       	mov	r0, r30
    1142:	3a f0       	brmi	.+14     	; 0x1152 <__divsf3_pse+0x3a>
    1144:	e0 e8       	ldi	r30, 0x80	; 128
    1146:	30 d0       	rcall	.+96     	; 0x11a8 <__divsf3_pse+0x90>
    1148:	91 50       	subi	r25, 0x01	; 1
    114a:	50 40       	sbci	r21, 0x00	; 0
    114c:	e6 95       	lsr	r30
    114e:	00 1c       	adc	r0, r0
    1150:	ca f7       	brpl	.-14     	; 0x1144 <__divsf3_pse+0x2c>
    1152:	29 d0       	rcall	.+82     	; 0x11a6 <__divsf3_pse+0x8e>
    1154:	fe 2f       	mov	r31, r30
    1156:	27 d0       	rcall	.+78     	; 0x11a6 <__divsf3_pse+0x8e>
    1158:	66 0f       	add	r22, r22
    115a:	77 1f       	adc	r23, r23
    115c:	88 1f       	adc	r24, r24
    115e:	bb 1f       	adc	r27, r27
    1160:	26 17       	cp	r18, r22
    1162:	37 07       	cpc	r19, r23
    1164:	48 07       	cpc	r20, r24
    1166:	ab 07       	cpc	r26, r27
    1168:	b0 e8       	ldi	r27, 0x80	; 128
    116a:	09 f0       	breq	.+2      	; 0x116e <__divsf3_pse+0x56>
    116c:	bb 0b       	sbc	r27, r27
    116e:	80 2d       	mov	r24, r0
    1170:	bf 01       	movw	r22, r30
    1172:	ff 27       	eor	r31, r31
    1174:	93 58       	subi	r25, 0x83	; 131
    1176:	5f 4f       	sbci	r21, 0xFF	; 255
    1178:	2a f0       	brmi	.+10     	; 0x1184 <__divsf3_pse+0x6c>
    117a:	9e 3f       	cpi	r25, 0xFE	; 254
    117c:	51 05       	cpc	r21, r1
    117e:	68 f0       	brcs	.+26     	; 0x119a <__divsf3_pse+0x82>
    1180:	c3 c0       	rjmp	.+390    	; 0x1308 <__fp_inf>
    1182:	0d c1       	rjmp	.+538    	; 0x139e <__fp_szero>
    1184:	5f 3f       	cpi	r21, 0xFF	; 255
    1186:	ec f3       	brlt	.-6      	; 0x1182 <__divsf3_pse+0x6a>
    1188:	98 3e       	cpi	r25, 0xE8	; 232
    118a:	dc f3       	brlt	.-10     	; 0x1182 <__divsf3_pse+0x6a>
    118c:	86 95       	lsr	r24
    118e:	77 95       	ror	r23
    1190:	67 95       	ror	r22
    1192:	b7 95       	ror	r27
    1194:	f7 95       	ror	r31
    1196:	9f 5f       	subi	r25, 0xFF	; 255
    1198:	c9 f7       	brne	.-14     	; 0x118c <__divsf3_pse+0x74>
    119a:	88 0f       	add	r24, r24
    119c:	91 1d       	adc	r25, r1
    119e:	96 95       	lsr	r25
    11a0:	87 95       	ror	r24
    11a2:	97 f9       	bld	r25, 7
    11a4:	08 95       	ret
    11a6:	e1 e0       	ldi	r30, 0x01	; 1
    11a8:	66 0f       	add	r22, r22
    11aa:	77 1f       	adc	r23, r23
    11ac:	88 1f       	adc	r24, r24
    11ae:	bb 1f       	adc	r27, r27
    11b0:	62 17       	cp	r22, r18
    11b2:	73 07       	cpc	r23, r19
    11b4:	84 07       	cpc	r24, r20
    11b6:	ba 07       	cpc	r27, r26
    11b8:	20 f0       	brcs	.+8      	; 0x11c2 <__divsf3_pse+0xaa>
    11ba:	62 1b       	sub	r22, r18
    11bc:	73 0b       	sbc	r23, r19
    11be:	84 0b       	sbc	r24, r20
    11c0:	ba 0b       	sbc	r27, r26
    11c2:	ee 1f       	adc	r30, r30
    11c4:	88 f7       	brcc	.-30     	; 0x11a8 <__divsf3_pse+0x90>
    11c6:	e0 95       	com	r30
    11c8:	08 95       	ret

000011ca <__floatunsisf>:
    11ca:	e8 94       	clt
    11cc:	09 c0       	rjmp	.+18     	; 0x11e0 <__floatsisf+0x12>

000011ce <__floatsisf>:
    11ce:	97 fb       	bst	r25, 7
    11d0:	3e f4       	brtc	.+14     	; 0x11e0 <__floatsisf+0x12>
    11d2:	90 95       	com	r25
    11d4:	80 95       	com	r24
    11d6:	70 95       	com	r23
    11d8:	61 95       	neg	r22
    11da:	7f 4f       	sbci	r23, 0xFF	; 255
    11dc:	8f 4f       	sbci	r24, 0xFF	; 255
    11de:	9f 4f       	sbci	r25, 0xFF	; 255
    11e0:	99 23       	and	r25, r25
    11e2:	a9 f0       	breq	.+42     	; 0x120e <__floatsisf+0x40>
    11e4:	f9 2f       	mov	r31, r25
    11e6:	96 e9       	ldi	r25, 0x96	; 150
    11e8:	bb 27       	eor	r27, r27
    11ea:	93 95       	inc	r25
    11ec:	f6 95       	lsr	r31
    11ee:	87 95       	ror	r24
    11f0:	77 95       	ror	r23
    11f2:	67 95       	ror	r22
    11f4:	b7 95       	ror	r27
    11f6:	f1 11       	cpse	r31, r1
    11f8:	f8 cf       	rjmp	.-16     	; 0x11ea <__floatsisf+0x1c>
    11fa:	fa f4       	brpl	.+62     	; 0x123a <__floatsisf+0x6c>
    11fc:	bb 0f       	add	r27, r27
    11fe:	11 f4       	brne	.+4      	; 0x1204 <__floatsisf+0x36>
    1200:	60 ff       	sbrs	r22, 0
    1202:	1b c0       	rjmp	.+54     	; 0x123a <__floatsisf+0x6c>
    1204:	6f 5f       	subi	r22, 0xFF	; 255
    1206:	7f 4f       	sbci	r23, 0xFF	; 255
    1208:	8f 4f       	sbci	r24, 0xFF	; 255
    120a:	9f 4f       	sbci	r25, 0xFF	; 255
    120c:	16 c0       	rjmp	.+44     	; 0x123a <__floatsisf+0x6c>
    120e:	88 23       	and	r24, r24
    1210:	11 f0       	breq	.+4      	; 0x1216 <__floatsisf+0x48>
    1212:	96 e9       	ldi	r25, 0x96	; 150
    1214:	11 c0       	rjmp	.+34     	; 0x1238 <__floatsisf+0x6a>
    1216:	77 23       	and	r23, r23
    1218:	21 f0       	breq	.+8      	; 0x1222 <__floatsisf+0x54>
    121a:	9e e8       	ldi	r25, 0x8E	; 142
    121c:	87 2f       	mov	r24, r23
    121e:	76 2f       	mov	r23, r22
    1220:	05 c0       	rjmp	.+10     	; 0x122c <__floatsisf+0x5e>
    1222:	66 23       	and	r22, r22
    1224:	71 f0       	breq	.+28     	; 0x1242 <__floatsisf+0x74>
    1226:	96 e8       	ldi	r25, 0x86	; 134
    1228:	86 2f       	mov	r24, r22
    122a:	70 e0       	ldi	r23, 0x00	; 0
    122c:	60 e0       	ldi	r22, 0x00	; 0
    122e:	2a f0       	brmi	.+10     	; 0x123a <__floatsisf+0x6c>
    1230:	9a 95       	dec	r25
    1232:	66 0f       	add	r22, r22
    1234:	77 1f       	adc	r23, r23
    1236:	88 1f       	adc	r24, r24
    1238:	da f7       	brpl	.-10     	; 0x1230 <__floatsisf+0x62>
    123a:	88 0f       	add	r24, r24
    123c:	96 95       	lsr	r25
    123e:	87 95       	ror	r24
    1240:	97 f9       	bld	r25, 7
    1242:	08 95       	ret

00001244 <__floatundisf>:
    1244:	e8 94       	clt

00001246 <__fp_di2sf>:
    1246:	f9 2f       	mov	r31, r25
    1248:	96 eb       	ldi	r25, 0xB6	; 182
    124a:	ff 23       	and	r31, r31
    124c:	81 f0       	breq	.+32     	; 0x126e <__fp_di2sf+0x28>
    124e:	12 16       	cp	r1, r18
    1250:	13 06       	cpc	r1, r19
    1252:	14 06       	cpc	r1, r20
    1254:	44 0b       	sbc	r20, r20
    1256:	93 95       	inc	r25
    1258:	f6 95       	lsr	r31
    125a:	87 95       	ror	r24
    125c:	77 95       	ror	r23
    125e:	67 95       	ror	r22
    1260:	57 95       	ror	r21
    1262:	40 40       	sbci	r20, 0x00	; 0
    1264:	ff 23       	and	r31, r31
    1266:	b9 f7       	brne	.-18     	; 0x1256 <__fp_di2sf+0x10>
    1268:	1b c0       	rjmp	.+54     	; 0x12a0 <__fp_di2sf+0x5a>
    126a:	99 27       	eor	r25, r25
    126c:	08 95       	ret
    126e:	88 23       	and	r24, r24
    1270:	51 f4       	brne	.+20     	; 0x1286 <__fp_di2sf+0x40>
    1272:	98 50       	subi	r25, 0x08	; 8
    1274:	d2 f7       	brpl	.-12     	; 0x126a <__fp_di2sf+0x24>
    1276:	87 2b       	or	r24, r23
    1278:	76 2f       	mov	r23, r22
    127a:	65 2f       	mov	r22, r21
    127c:	54 2f       	mov	r21, r20
    127e:	43 2f       	mov	r20, r19
    1280:	32 2f       	mov	r19, r18
    1282:	20 e0       	ldi	r18, 0x00	; 0
    1284:	b1 f3       	breq	.-20     	; 0x1272 <__fp_di2sf+0x2c>
    1286:	12 16       	cp	r1, r18
    1288:	13 06       	cpc	r1, r19
    128a:	14 06       	cpc	r1, r20
    128c:	44 0b       	sbc	r20, r20
    128e:	88 23       	and	r24, r24
    1290:	3a f0       	brmi	.+14     	; 0x12a0 <__fp_di2sf+0x5a>
    1292:	9a 95       	dec	r25
    1294:	44 0f       	add	r20, r20
    1296:	55 1f       	adc	r21, r21
    1298:	66 1f       	adc	r22, r22
    129a:	77 1f       	adc	r23, r23
    129c:	88 1f       	adc	r24, r24
    129e:	ca f7       	brpl	.-14     	; 0x1292 <__fp_di2sf+0x4c>
    12a0:	55 23       	and	r21, r21
    12a2:	4a f4       	brpl	.+18     	; 0x12b6 <__fp_di2sf+0x70>
    12a4:	44 0f       	add	r20, r20
    12a6:	55 1f       	adc	r21, r21
    12a8:	11 f4       	brne	.+4      	; 0x12ae <__fp_di2sf+0x68>
    12aa:	60 ff       	sbrs	r22, 0
    12ac:	04 c0       	rjmp	.+8      	; 0x12b6 <__fp_di2sf+0x70>
    12ae:	6f 5f       	subi	r22, 0xFF	; 255
    12b0:	7f 4f       	sbci	r23, 0xFF	; 255
    12b2:	8f 4f       	sbci	r24, 0xFF	; 255
    12b4:	9f 4f       	sbci	r25, 0xFF	; 255
    12b6:	88 0f       	add	r24, r24
    12b8:	96 95       	lsr	r25
    12ba:	87 95       	ror	r24
    12bc:	97 f9       	bld	r25, 7
    12be:	08 95       	ret

000012c0 <__fp_cmp>:
    12c0:	99 0f       	add	r25, r25
    12c2:	00 08       	sbc	r0, r0
    12c4:	55 0f       	add	r21, r21
    12c6:	aa 0b       	sbc	r26, r26
    12c8:	e0 e8       	ldi	r30, 0x80	; 128
    12ca:	fe ef       	ldi	r31, 0xFE	; 254
    12cc:	16 16       	cp	r1, r22
    12ce:	17 06       	cpc	r1, r23
    12d0:	e8 07       	cpc	r30, r24
    12d2:	f9 07       	cpc	r31, r25
    12d4:	c0 f0       	brcs	.+48     	; 0x1306 <__fp_cmp+0x46>
    12d6:	12 16       	cp	r1, r18
    12d8:	13 06       	cpc	r1, r19
    12da:	e4 07       	cpc	r30, r20
    12dc:	f5 07       	cpc	r31, r21
    12de:	98 f0       	brcs	.+38     	; 0x1306 <__fp_cmp+0x46>
    12e0:	62 1b       	sub	r22, r18
    12e2:	73 0b       	sbc	r23, r19
    12e4:	84 0b       	sbc	r24, r20
    12e6:	95 0b       	sbc	r25, r21
    12e8:	39 f4       	brne	.+14     	; 0x12f8 <__fp_cmp+0x38>
    12ea:	0a 26       	eor	r0, r26
    12ec:	61 f0       	breq	.+24     	; 0x1306 <__fp_cmp+0x46>
    12ee:	23 2b       	or	r18, r19
    12f0:	24 2b       	or	r18, r20
    12f2:	25 2b       	or	r18, r21
    12f4:	21 f4       	brne	.+8      	; 0x12fe <__fp_cmp+0x3e>
    12f6:	08 95       	ret
    12f8:	0a 26       	eor	r0, r26
    12fa:	09 f4       	brne	.+2      	; 0x12fe <__fp_cmp+0x3e>
    12fc:	a1 40       	sbci	r26, 0x01	; 1
    12fe:	a6 95       	lsr	r26
    1300:	8f ef       	ldi	r24, 0xFF	; 255
    1302:	81 1d       	adc	r24, r1
    1304:	81 1d       	adc	r24, r1
    1306:	08 95       	ret

00001308 <__fp_inf>:
    1308:	97 f9       	bld	r25, 7
    130a:	9f 67       	ori	r25, 0x7F	; 127
    130c:	80 e8       	ldi	r24, 0x80	; 128
    130e:	70 e0       	ldi	r23, 0x00	; 0
    1310:	60 e0       	ldi	r22, 0x00	; 0
    1312:	08 95       	ret

00001314 <__fp_nan>:
    1314:	9f ef       	ldi	r25, 0xFF	; 255
    1316:	80 ec       	ldi	r24, 0xC0	; 192
    1318:	08 95       	ret

0000131a <__fp_pscA>:
    131a:	00 24       	eor	r0, r0
    131c:	0a 94       	dec	r0
    131e:	16 16       	cp	r1, r22
    1320:	17 06       	cpc	r1, r23
    1322:	18 06       	cpc	r1, r24
    1324:	09 06       	cpc	r0, r25
    1326:	08 95       	ret

00001328 <__fp_pscB>:
    1328:	00 24       	eor	r0, r0
    132a:	0a 94       	dec	r0
    132c:	12 16       	cp	r1, r18
    132e:	13 06       	cpc	r1, r19
    1330:	14 06       	cpc	r1, r20
    1332:	05 06       	cpc	r0, r21
    1334:	08 95       	ret

00001336 <__fp_round>:
    1336:	09 2e       	mov	r0, r25
    1338:	03 94       	inc	r0
    133a:	00 0c       	add	r0, r0
    133c:	11 f4       	brne	.+4      	; 0x1342 <__fp_round+0xc>
    133e:	88 23       	and	r24, r24
    1340:	52 f0       	brmi	.+20     	; 0x1356 <__fp_round+0x20>
    1342:	bb 0f       	add	r27, r27
    1344:	40 f4       	brcc	.+16     	; 0x1356 <__fp_round+0x20>
    1346:	bf 2b       	or	r27, r31
    1348:	11 f4       	brne	.+4      	; 0x134e <__fp_round+0x18>
    134a:	60 ff       	sbrs	r22, 0
    134c:	04 c0       	rjmp	.+8      	; 0x1356 <__fp_round+0x20>
    134e:	6f 5f       	subi	r22, 0xFF	; 255
    1350:	7f 4f       	sbci	r23, 0xFF	; 255
    1352:	8f 4f       	sbci	r24, 0xFF	; 255
    1354:	9f 4f       	sbci	r25, 0xFF	; 255
    1356:	08 95       	ret

00001358 <__fp_split3>:
    1358:	57 fd       	sbrc	r21, 7
    135a:	90 58       	subi	r25, 0x80	; 128
    135c:	44 0f       	add	r20, r20
    135e:	55 1f       	adc	r21, r21
    1360:	59 f0       	breq	.+22     	; 0x1378 <__fp_splitA+0x10>
    1362:	5f 3f       	cpi	r21, 0xFF	; 255
    1364:	71 f0       	breq	.+28     	; 0x1382 <__fp_splitA+0x1a>
    1366:	47 95       	ror	r20

00001368 <__fp_splitA>:
    1368:	88 0f       	add	r24, r24
    136a:	97 fb       	bst	r25, 7
    136c:	99 1f       	adc	r25, r25
    136e:	61 f0       	breq	.+24     	; 0x1388 <__fp_splitA+0x20>
    1370:	9f 3f       	cpi	r25, 0xFF	; 255
    1372:	79 f0       	breq	.+30     	; 0x1392 <__fp_splitA+0x2a>
    1374:	87 95       	ror	r24
    1376:	08 95       	ret
    1378:	12 16       	cp	r1, r18
    137a:	13 06       	cpc	r1, r19
    137c:	14 06       	cpc	r1, r20
    137e:	55 1f       	adc	r21, r21
    1380:	f2 cf       	rjmp	.-28     	; 0x1366 <__fp_split3+0xe>
    1382:	46 95       	lsr	r20
    1384:	f1 df       	rcall	.-30     	; 0x1368 <__fp_splitA>
    1386:	08 c0       	rjmp	.+16     	; 0x1398 <__fp_splitA+0x30>
    1388:	16 16       	cp	r1, r22
    138a:	17 06       	cpc	r1, r23
    138c:	18 06       	cpc	r1, r24
    138e:	99 1f       	adc	r25, r25
    1390:	f1 cf       	rjmp	.-30     	; 0x1374 <__fp_splitA+0xc>
    1392:	86 95       	lsr	r24
    1394:	71 05       	cpc	r23, r1
    1396:	61 05       	cpc	r22, r1
    1398:	08 94       	sec
    139a:	08 95       	ret

0000139c <__fp_zero>:
    139c:	e8 94       	clt

0000139e <__fp_szero>:
    139e:	bb 27       	eor	r27, r27
    13a0:	66 27       	eor	r22, r22
    13a2:	77 27       	eor	r23, r23
    13a4:	cb 01       	movw	r24, r22
    13a6:	97 f9       	bld	r25, 7
    13a8:	08 95       	ret

000013aa <__mulsf3>:
    13aa:	0b d0       	rcall	.+22     	; 0x13c2 <__mulsf3x>
    13ac:	c4 cf       	rjmp	.-120    	; 0x1336 <__fp_round>
    13ae:	b5 df       	rcall	.-150    	; 0x131a <__fp_pscA>
    13b0:	28 f0       	brcs	.+10     	; 0x13bc <__mulsf3+0x12>
    13b2:	ba df       	rcall	.-140    	; 0x1328 <__fp_pscB>
    13b4:	18 f0       	brcs	.+6      	; 0x13bc <__mulsf3+0x12>
    13b6:	95 23       	and	r25, r21
    13b8:	09 f0       	breq	.+2      	; 0x13bc <__mulsf3+0x12>
    13ba:	a6 cf       	rjmp	.-180    	; 0x1308 <__fp_inf>
    13bc:	ab cf       	rjmp	.-170    	; 0x1314 <__fp_nan>
    13be:	11 24       	eor	r1, r1
    13c0:	ee cf       	rjmp	.-36     	; 0x139e <__fp_szero>

000013c2 <__mulsf3x>:
    13c2:	ca df       	rcall	.-108    	; 0x1358 <__fp_split3>
    13c4:	a0 f3       	brcs	.-24     	; 0x13ae <__mulsf3+0x4>

000013c6 <__mulsf3_pse>:
    13c6:	95 9f       	mul	r25, r21
    13c8:	d1 f3       	breq	.-12     	; 0x13be <__mulsf3+0x14>
    13ca:	95 0f       	add	r25, r21
    13cc:	50 e0       	ldi	r21, 0x00	; 0
    13ce:	55 1f       	adc	r21, r21
    13d0:	62 9f       	mul	r22, r18
    13d2:	f0 01       	movw	r30, r0
    13d4:	72 9f       	mul	r23, r18
    13d6:	bb 27       	eor	r27, r27
    13d8:	f0 0d       	add	r31, r0
    13da:	b1 1d       	adc	r27, r1
    13dc:	63 9f       	mul	r22, r19
    13de:	aa 27       	eor	r26, r26
    13e0:	f0 0d       	add	r31, r0
    13e2:	b1 1d       	adc	r27, r1
    13e4:	aa 1f       	adc	r26, r26
    13e6:	64 9f       	mul	r22, r20
    13e8:	66 27       	eor	r22, r22
    13ea:	b0 0d       	add	r27, r0
    13ec:	a1 1d       	adc	r26, r1
    13ee:	66 1f       	adc	r22, r22
    13f0:	82 9f       	mul	r24, r18
    13f2:	22 27       	eor	r18, r18
    13f4:	b0 0d       	add	r27, r0
    13f6:	a1 1d       	adc	r26, r1
    13f8:	62 1f       	adc	r22, r18
    13fa:	73 9f       	mul	r23, r19
    13fc:	b0 0d       	add	r27, r0
    13fe:	a1 1d       	adc	r26, r1
    1400:	62 1f       	adc	r22, r18
    1402:	83 9f       	mul	r24, r19
    1404:	a0 0d       	add	r26, r0
    1406:	61 1d       	adc	r22, r1
    1408:	22 1f       	adc	r18, r18
    140a:	74 9f       	mul	r23, r20
    140c:	33 27       	eor	r19, r19
    140e:	a0 0d       	add	r26, r0
    1410:	61 1d       	adc	r22, r1
    1412:	23 1f       	adc	r18, r19
    1414:	84 9f       	mul	r24, r20
    1416:	60 0d       	add	r22, r0
    1418:	21 1d       	adc	r18, r1
    141a:	82 2f       	mov	r24, r18
    141c:	76 2f       	mov	r23, r22
    141e:	6a 2f       	mov	r22, r26
    1420:	11 24       	eor	r1, r1
    1422:	9f 57       	subi	r25, 0x7F	; 127
    1424:	50 40       	sbci	r21, 0x00	; 0
    1426:	8a f0       	brmi	.+34     	; 0x144a <__mulsf3_pse+0x84>
    1428:	e1 f0       	breq	.+56     	; 0x1462 <__mulsf3_pse+0x9c>
    142a:	88 23       	and	r24, r24
    142c:	4a f0       	brmi	.+18     	; 0x1440 <__mulsf3_pse+0x7a>
    142e:	ee 0f       	add	r30, r30
    1430:	ff 1f       	adc	r31, r31
    1432:	bb 1f       	adc	r27, r27
    1434:	66 1f       	adc	r22, r22
    1436:	77 1f       	adc	r23, r23
    1438:	88 1f       	adc	r24, r24
    143a:	91 50       	subi	r25, 0x01	; 1
    143c:	50 40       	sbci	r21, 0x00	; 0
    143e:	a9 f7       	brne	.-22     	; 0x142a <__mulsf3_pse+0x64>
    1440:	9e 3f       	cpi	r25, 0xFE	; 254
    1442:	51 05       	cpc	r21, r1
    1444:	70 f0       	brcs	.+28     	; 0x1462 <__mulsf3_pse+0x9c>
    1446:	60 cf       	rjmp	.-320    	; 0x1308 <__fp_inf>
    1448:	aa cf       	rjmp	.-172    	; 0x139e <__fp_szero>
    144a:	5f 3f       	cpi	r21, 0xFF	; 255
    144c:	ec f3       	brlt	.-6      	; 0x1448 <__mulsf3_pse+0x82>
    144e:	98 3e       	cpi	r25, 0xE8	; 232
    1450:	dc f3       	brlt	.-10     	; 0x1448 <__mulsf3_pse+0x82>
    1452:	86 95       	lsr	r24
    1454:	77 95       	ror	r23
    1456:	67 95       	ror	r22
    1458:	b7 95       	ror	r27
    145a:	f7 95       	ror	r31
    145c:	e7 95       	ror	r30
    145e:	9f 5f       	subi	r25, 0xFF	; 255
    1460:	c1 f7       	brne	.-16     	; 0x1452 <__mulsf3_pse+0x8c>
    1462:	fe 2b       	or	r31, r30
    1464:	88 0f       	add	r24, r24
    1466:	91 1d       	adc	r25, r1
    1468:	96 95       	lsr	r25
    146a:	87 95       	ror	r24
    146c:	97 f9       	bld	r25, 7
    146e:	08 95       	ret

00001470 <__tablejump2__>:
    1470:	ee 0f       	add	r30, r30
    1472:	ff 1f       	adc	r31, r31

00001474 <__tablejump__>:
    1474:	05 90       	lpm	r0, Z+
    1476:	f4 91       	lpm	r31, Z
    1478:	e0 2d       	mov	r30, r0
    147a:	09 94       	ijmp

0000147c <__ashldi3>:
    147c:	0f 93       	push	r16
    147e:	08 30       	cpi	r16, 0x08	; 8
    1480:	90 f0       	brcs	.+36     	; 0x14a6 <__ashldi3+0x2a>
    1482:	98 2f       	mov	r25, r24
    1484:	87 2f       	mov	r24, r23
    1486:	76 2f       	mov	r23, r22
    1488:	65 2f       	mov	r22, r21
    148a:	54 2f       	mov	r21, r20
    148c:	43 2f       	mov	r20, r19
    148e:	32 2f       	mov	r19, r18
    1490:	22 27       	eor	r18, r18
    1492:	08 50       	subi	r16, 0x08	; 8
    1494:	f4 cf       	rjmp	.-24     	; 0x147e <__ashldi3+0x2>
    1496:	22 0f       	add	r18, r18
    1498:	33 1f       	adc	r19, r19
    149a:	44 1f       	adc	r20, r20
    149c:	55 1f       	adc	r21, r21
    149e:	66 1f       	adc	r22, r22
    14a0:	77 1f       	adc	r23, r23
    14a2:	88 1f       	adc	r24, r24
    14a4:	99 1f       	adc	r25, r25
    14a6:	0a 95       	dec	r16
    14a8:	b2 f7       	brpl	.-20     	; 0x1496 <__ashldi3+0x1a>
    14aa:	0f 91       	pop	r16
    14ac:	08 95       	ret

000014ae <__adddi3>:
    14ae:	2a 0d       	add	r18, r10
    14b0:	3b 1d       	adc	r19, r11
    14b2:	4c 1d       	adc	r20, r12
    14b4:	5d 1d       	adc	r21, r13
    14b6:	6e 1d       	adc	r22, r14
    14b8:	7f 1d       	adc	r23, r15
    14ba:	80 1f       	adc	r24, r16
    14bc:	91 1f       	adc	r25, r17
    14be:	08 95       	ret

000014c0 <__adddi3_s8>:
    14c0:	00 24       	eor	r0, r0
    14c2:	a7 fd       	sbrc	r26, 7
    14c4:	00 94       	com	r0
    14c6:	2a 0f       	add	r18, r26
    14c8:	30 1d       	adc	r19, r0
    14ca:	40 1d       	adc	r20, r0
    14cc:	50 1d       	adc	r21, r0
    14ce:	60 1d       	adc	r22, r0
    14d0:	70 1d       	adc	r23, r0
    14d2:	80 1d       	adc	r24, r0
    14d4:	90 1d       	adc	r25, r0
    14d6:	08 95       	ret

000014d8 <__subdi3>:
    14d8:	2a 19       	sub	r18, r10
    14da:	3b 09       	sbc	r19, r11
    14dc:	4c 09       	sbc	r20, r12
    14de:	5d 09       	sbc	r21, r13
    14e0:	6e 09       	sbc	r22, r14
    14e2:	7f 09       	sbc	r23, r15
    14e4:	80 0b       	sbc	r24, r16
    14e6:	91 0b       	sbc	r25, r17
    14e8:	08 95       	ret

000014ea <malloc>:
    14ea:	cf 93       	push	r28
    14ec:	df 93       	push	r29
    14ee:	82 30       	cpi	r24, 0x02	; 2
    14f0:	91 05       	cpc	r25, r1
    14f2:	10 f4       	brcc	.+4      	; 0x14f8 <malloc+0xe>
    14f4:	82 e0       	ldi	r24, 0x02	; 2
    14f6:	90 e0       	ldi	r25, 0x00	; 0
    14f8:	e0 91 3e 01 	lds	r30, 0x013E
    14fc:	f0 91 3f 01 	lds	r31, 0x013F
    1500:	20 e0       	ldi	r18, 0x00	; 0
    1502:	30 e0       	ldi	r19, 0x00	; 0
    1504:	a0 e0       	ldi	r26, 0x00	; 0
    1506:	b0 e0       	ldi	r27, 0x00	; 0
    1508:	30 97       	sbiw	r30, 0x00	; 0
    150a:	39 f1       	breq	.+78     	; 0x155a <malloc+0x70>
    150c:	40 81       	ld	r20, Z
    150e:	51 81       	ldd	r21, Z+1	; 0x01
    1510:	48 17       	cp	r20, r24
    1512:	59 07       	cpc	r21, r25
    1514:	b8 f0       	brcs	.+46     	; 0x1544 <malloc+0x5a>
    1516:	48 17       	cp	r20, r24
    1518:	59 07       	cpc	r21, r25
    151a:	71 f4       	brne	.+28     	; 0x1538 <malloc+0x4e>
    151c:	82 81       	ldd	r24, Z+2	; 0x02
    151e:	93 81       	ldd	r25, Z+3	; 0x03
    1520:	10 97       	sbiw	r26, 0x00	; 0
    1522:	29 f0       	breq	.+10     	; 0x152e <malloc+0x44>
    1524:	13 96       	adiw	r26, 0x03	; 3
    1526:	9c 93       	st	X, r25
    1528:	8e 93       	st	-X, r24
    152a:	12 97       	sbiw	r26, 0x02	; 2
    152c:	2c c0       	rjmp	.+88     	; 0x1586 <malloc+0x9c>
    152e:	90 93 3f 01 	sts	0x013F, r25
    1532:	80 93 3e 01 	sts	0x013E, r24
    1536:	27 c0       	rjmp	.+78     	; 0x1586 <malloc+0x9c>
    1538:	21 15       	cp	r18, r1
    153a:	31 05       	cpc	r19, r1
    153c:	31 f0       	breq	.+12     	; 0x154a <malloc+0x60>
    153e:	42 17       	cp	r20, r18
    1540:	53 07       	cpc	r21, r19
    1542:	18 f0       	brcs	.+6      	; 0x154a <malloc+0x60>
    1544:	a9 01       	movw	r20, r18
    1546:	db 01       	movw	r26, r22
    1548:	01 c0       	rjmp	.+2      	; 0x154c <malloc+0x62>
    154a:	ef 01       	movw	r28, r30
    154c:	9a 01       	movw	r18, r20
    154e:	bd 01       	movw	r22, r26
    1550:	df 01       	movw	r26, r30
    1552:	02 80       	ldd	r0, Z+2	; 0x02
    1554:	f3 81       	ldd	r31, Z+3	; 0x03
    1556:	e0 2d       	mov	r30, r0
    1558:	d7 cf       	rjmp	.-82     	; 0x1508 <malloc+0x1e>
    155a:	21 15       	cp	r18, r1
    155c:	31 05       	cpc	r19, r1
    155e:	f9 f0       	breq	.+62     	; 0x159e <malloc+0xb4>
    1560:	28 1b       	sub	r18, r24
    1562:	39 0b       	sbc	r19, r25
    1564:	24 30       	cpi	r18, 0x04	; 4
    1566:	31 05       	cpc	r19, r1
    1568:	80 f4       	brcc	.+32     	; 0x158a <malloc+0xa0>
    156a:	8a 81       	ldd	r24, Y+2	; 0x02
    156c:	9b 81       	ldd	r25, Y+3	; 0x03
    156e:	61 15       	cp	r22, r1
    1570:	71 05       	cpc	r23, r1
    1572:	21 f0       	breq	.+8      	; 0x157c <malloc+0x92>
    1574:	fb 01       	movw	r30, r22
    1576:	93 83       	std	Z+3, r25	; 0x03
    1578:	82 83       	std	Z+2, r24	; 0x02
    157a:	04 c0       	rjmp	.+8      	; 0x1584 <malloc+0x9a>
    157c:	90 93 3f 01 	sts	0x013F, r25
    1580:	80 93 3e 01 	sts	0x013E, r24
    1584:	fe 01       	movw	r30, r28
    1586:	32 96       	adiw	r30, 0x02	; 2
    1588:	44 c0       	rjmp	.+136    	; 0x1612 <malloc+0x128>
    158a:	fe 01       	movw	r30, r28
    158c:	e2 0f       	add	r30, r18
    158e:	f3 1f       	adc	r31, r19
    1590:	81 93       	st	Z+, r24
    1592:	91 93       	st	Z+, r25
    1594:	22 50       	subi	r18, 0x02	; 2
    1596:	31 09       	sbc	r19, r1
    1598:	39 83       	std	Y+1, r19	; 0x01
    159a:	28 83       	st	Y, r18
    159c:	3a c0       	rjmp	.+116    	; 0x1612 <malloc+0x128>
    159e:	20 91 3c 01 	lds	r18, 0x013C
    15a2:	30 91 3d 01 	lds	r19, 0x013D
    15a6:	23 2b       	or	r18, r19
    15a8:	41 f4       	brne	.+16     	; 0x15ba <malloc+0xd0>
    15aa:	20 91 02 01 	lds	r18, 0x0102
    15ae:	30 91 03 01 	lds	r19, 0x0103
    15b2:	30 93 3d 01 	sts	0x013D, r19
    15b6:	20 93 3c 01 	sts	0x013C, r18
    15ba:	20 91 00 01 	lds	r18, 0x0100
    15be:	30 91 01 01 	lds	r19, 0x0101
    15c2:	21 15       	cp	r18, r1
    15c4:	31 05       	cpc	r19, r1
    15c6:	41 f4       	brne	.+16     	; 0x15d8 <malloc+0xee>
    15c8:	2d b7       	in	r18, 0x3d	; 61
    15ca:	3e b7       	in	r19, 0x3e	; 62
    15cc:	40 91 04 01 	lds	r20, 0x0104
    15d0:	50 91 05 01 	lds	r21, 0x0105
    15d4:	24 1b       	sub	r18, r20
    15d6:	35 0b       	sbc	r19, r21
    15d8:	e0 91 3c 01 	lds	r30, 0x013C
    15dc:	f0 91 3d 01 	lds	r31, 0x013D
    15e0:	e2 17       	cp	r30, r18
    15e2:	f3 07       	cpc	r31, r19
    15e4:	a0 f4       	brcc	.+40     	; 0x160e <malloc+0x124>
    15e6:	2e 1b       	sub	r18, r30
    15e8:	3f 0b       	sbc	r19, r31
    15ea:	28 17       	cp	r18, r24
    15ec:	39 07       	cpc	r19, r25
    15ee:	78 f0       	brcs	.+30     	; 0x160e <malloc+0x124>
    15f0:	ac 01       	movw	r20, r24
    15f2:	4e 5f       	subi	r20, 0xFE	; 254
    15f4:	5f 4f       	sbci	r21, 0xFF	; 255
    15f6:	24 17       	cp	r18, r20
    15f8:	35 07       	cpc	r19, r21
    15fa:	48 f0       	brcs	.+18     	; 0x160e <malloc+0x124>
    15fc:	4e 0f       	add	r20, r30
    15fe:	5f 1f       	adc	r21, r31
    1600:	50 93 3d 01 	sts	0x013D, r21
    1604:	40 93 3c 01 	sts	0x013C, r20
    1608:	81 93       	st	Z+, r24
    160a:	91 93       	st	Z+, r25
    160c:	02 c0       	rjmp	.+4      	; 0x1612 <malloc+0x128>
    160e:	e0 e0       	ldi	r30, 0x00	; 0
    1610:	f0 e0       	ldi	r31, 0x00	; 0
    1612:	cf 01       	movw	r24, r30
    1614:	df 91       	pop	r29
    1616:	cf 91       	pop	r28
    1618:	08 95       	ret

0000161a <free>:
    161a:	cf 93       	push	r28
    161c:	df 93       	push	r29
    161e:	00 97       	sbiw	r24, 0x00	; 0
    1620:	09 f4       	brne	.+2      	; 0x1624 <free+0xa>
    1622:	87 c0       	rjmp	.+270    	; 0x1732 <free+0x118>
    1624:	fc 01       	movw	r30, r24
    1626:	32 97       	sbiw	r30, 0x02	; 2
    1628:	13 82       	std	Z+3, r1	; 0x03
    162a:	12 82       	std	Z+2, r1	; 0x02
    162c:	c0 91 3e 01 	lds	r28, 0x013E
    1630:	d0 91 3f 01 	lds	r29, 0x013F
    1634:	20 97       	sbiw	r28, 0x00	; 0
    1636:	81 f4       	brne	.+32     	; 0x1658 <free+0x3e>
    1638:	20 81       	ld	r18, Z
    163a:	31 81       	ldd	r19, Z+1	; 0x01
    163c:	28 0f       	add	r18, r24
    163e:	39 1f       	adc	r19, r25
    1640:	80 91 3c 01 	lds	r24, 0x013C
    1644:	90 91 3d 01 	lds	r25, 0x013D
    1648:	82 17       	cp	r24, r18
    164a:	93 07       	cpc	r25, r19
    164c:	79 f5       	brne	.+94     	; 0x16ac <free+0x92>
    164e:	f0 93 3d 01 	sts	0x013D, r31
    1652:	e0 93 3c 01 	sts	0x013C, r30
    1656:	6d c0       	rjmp	.+218    	; 0x1732 <free+0x118>
    1658:	de 01       	movw	r26, r28
    165a:	20 e0       	ldi	r18, 0x00	; 0
    165c:	30 e0       	ldi	r19, 0x00	; 0
    165e:	ae 17       	cp	r26, r30
    1660:	bf 07       	cpc	r27, r31
    1662:	50 f4       	brcc	.+20     	; 0x1678 <free+0x5e>
    1664:	12 96       	adiw	r26, 0x02	; 2
    1666:	4d 91       	ld	r20, X+
    1668:	5c 91       	ld	r21, X
    166a:	13 97       	sbiw	r26, 0x03	; 3
    166c:	9d 01       	movw	r18, r26
    166e:	41 15       	cp	r20, r1
    1670:	51 05       	cpc	r21, r1
    1672:	09 f1       	breq	.+66     	; 0x16b6 <free+0x9c>
    1674:	da 01       	movw	r26, r20
    1676:	f3 cf       	rjmp	.-26     	; 0x165e <free+0x44>
    1678:	b3 83       	std	Z+3, r27	; 0x03
    167a:	a2 83       	std	Z+2, r26	; 0x02
    167c:	40 81       	ld	r20, Z
    167e:	51 81       	ldd	r21, Z+1	; 0x01
    1680:	84 0f       	add	r24, r20
    1682:	95 1f       	adc	r25, r21
    1684:	8a 17       	cp	r24, r26
    1686:	9b 07       	cpc	r25, r27
    1688:	71 f4       	brne	.+28     	; 0x16a6 <free+0x8c>
    168a:	8d 91       	ld	r24, X+
    168c:	9c 91       	ld	r25, X
    168e:	11 97       	sbiw	r26, 0x01	; 1
    1690:	84 0f       	add	r24, r20
    1692:	95 1f       	adc	r25, r21
    1694:	02 96       	adiw	r24, 0x02	; 2
    1696:	91 83       	std	Z+1, r25	; 0x01
    1698:	80 83       	st	Z, r24
    169a:	12 96       	adiw	r26, 0x02	; 2
    169c:	8d 91       	ld	r24, X+
    169e:	9c 91       	ld	r25, X
    16a0:	13 97       	sbiw	r26, 0x03	; 3
    16a2:	93 83       	std	Z+3, r25	; 0x03
    16a4:	82 83       	std	Z+2, r24	; 0x02
    16a6:	21 15       	cp	r18, r1
    16a8:	31 05       	cpc	r19, r1
    16aa:	29 f4       	brne	.+10     	; 0x16b6 <free+0x9c>
    16ac:	f0 93 3f 01 	sts	0x013F, r31
    16b0:	e0 93 3e 01 	sts	0x013E, r30
    16b4:	3e c0       	rjmp	.+124    	; 0x1732 <free+0x118>
    16b6:	d9 01       	movw	r26, r18
    16b8:	13 96       	adiw	r26, 0x03	; 3
    16ba:	fc 93       	st	X, r31
    16bc:	ee 93       	st	-X, r30
    16be:	12 97       	sbiw	r26, 0x02	; 2
    16c0:	4d 91       	ld	r20, X+
    16c2:	5d 91       	ld	r21, X+
    16c4:	a4 0f       	add	r26, r20
    16c6:	b5 1f       	adc	r27, r21
    16c8:	ea 17       	cp	r30, r26
    16ca:	fb 07       	cpc	r31, r27
    16cc:	79 f4       	brne	.+30     	; 0x16ec <free+0xd2>
    16ce:	80 81       	ld	r24, Z
    16d0:	91 81       	ldd	r25, Z+1	; 0x01
    16d2:	84 0f       	add	r24, r20
    16d4:	95 1f       	adc	r25, r21
    16d6:	02 96       	adiw	r24, 0x02	; 2
    16d8:	d9 01       	movw	r26, r18
    16da:	11 96       	adiw	r26, 0x01	; 1
    16dc:	9c 93       	st	X, r25
    16de:	8e 93       	st	-X, r24
    16e0:	82 81       	ldd	r24, Z+2	; 0x02
    16e2:	93 81       	ldd	r25, Z+3	; 0x03
    16e4:	13 96       	adiw	r26, 0x03	; 3
    16e6:	9c 93       	st	X, r25
    16e8:	8e 93       	st	-X, r24
    16ea:	12 97       	sbiw	r26, 0x02	; 2
    16ec:	e0 e0       	ldi	r30, 0x00	; 0
    16ee:	f0 e0       	ldi	r31, 0x00	; 0
    16f0:	8a 81       	ldd	r24, Y+2	; 0x02
    16f2:	9b 81       	ldd	r25, Y+3	; 0x03
    16f4:	00 97       	sbiw	r24, 0x00	; 0
    16f6:	19 f0       	breq	.+6      	; 0x16fe <free+0xe4>
    16f8:	fe 01       	movw	r30, r28
    16fa:	ec 01       	movw	r28, r24
    16fc:	f9 cf       	rjmp	.-14     	; 0x16f0 <free+0xd6>
    16fe:	ce 01       	movw	r24, r28
    1700:	02 96       	adiw	r24, 0x02	; 2
    1702:	28 81       	ld	r18, Y
    1704:	39 81       	ldd	r19, Y+1	; 0x01
    1706:	82 0f       	add	r24, r18
    1708:	93 1f       	adc	r25, r19
    170a:	20 91 3c 01 	lds	r18, 0x013C
    170e:	30 91 3d 01 	lds	r19, 0x013D
    1712:	28 17       	cp	r18, r24
    1714:	39 07       	cpc	r19, r25
    1716:	69 f4       	brne	.+26     	; 0x1732 <free+0x118>
    1718:	30 97       	sbiw	r30, 0x00	; 0
    171a:	29 f4       	brne	.+10     	; 0x1726 <free+0x10c>
    171c:	10 92 3f 01 	sts	0x013F, r1
    1720:	10 92 3e 01 	sts	0x013E, r1
    1724:	02 c0       	rjmp	.+4      	; 0x172a <free+0x110>
    1726:	13 82       	std	Z+3, r1	; 0x03
    1728:	12 82       	std	Z+2, r1	; 0x02
    172a:	d0 93 3d 01 	sts	0x013D, r29
    172e:	c0 93 3c 01 	sts	0x013C, r28
    1732:	df 91       	pop	r29
    1734:	cf 91       	pop	r28
    1736:	08 95       	ret

00001738 <_exit>:
    1738:	f8 94       	cli

0000173a <__stop_program>:
    173a:	ff cf       	rjmp	.-2      	; 0x173a <__stop_program>
